	.section	__TEXT,__text,regular,pure_instructions
	.build_version macos, 10, 15	sdk_version 10, 15, 4
	.globl	_main                   ## -- Begin function main
	.p2align	4, 0x90
_main:                                  ## @main
	.cfi_startproc
## %bb.0:
	pushq	%rbp
	.cfi_def_cfa_offset 16
	.cfi_offset %rbp, -16
	movq	%rsp, %rbp
	.cfi_def_cfa_register %rbp
	subq	$4016, %rsp             ## imm = 0xFB0
	movq	__ZNSt3__14coutE@GOTPCREL(%rip), %rdi
	movq	___stack_chk_guard@GOTPCREL(%rip), %rax
	movq	(%rax), %rax
	movq	%rax, -8(%rbp)
	movl	-3788(%rbp), %esi
	callq	__ZNSt3__113basic_ostreamIcNS_11char_traitsIcEEElsEi
	movq	%rax, %rdi
	leaq	__ZNSt3__1L4endlIcNS_11char_traitsIcEEEERNS_13basic_ostreamIT_T0_EES7_(%rip), %rsi
	callq	__ZNSt3__113basic_ostreamIcNS_11char_traitsIcEEElsEPFRS3_S4_E
	movq	___stack_chk_guard@GOTPCREL(%rip), %rcx
	movq	(%rcx), %rcx
	movq	-8(%rbp), %rdx
	cmpq	%rdx, %rcx
	jne	LBB0_2
## %bb.1:
	xorl	%eax, %eax
	addq	$4016, %rsp             ## imm = 0xFB0
	popq	%rbp
	retq
LBB0_2:
	callq	___stack_chk_fail
	ud2
	.cfi_endproc
                                        ## -- End function
	.p2align	4, 0x90         ## -- Begin function _ZNSt3__113basic_ostreamIcNS_11char_traitsIcEEElsEPFRS3_S4_E
__ZNSt3__113basic_ostreamIcNS_11char_traitsIcEEElsEPFRS3_S4_E: ## @_ZNSt3__113basic_ostreamIcNS_11char_traitsIcEEElsEPFRS3_S4_E
	.cfi_startproc
## %bb.0:
	pushq	%rbp
	.cfi_def_cfa_offset 16
	.cfi_offset %rbp, -16
	movq	%rsp, %rbp
	.cfi_def_cfa_register %rbp
	subq	$16, %rsp
	movq	%rdi, -8(%rbp)
	movq	%rsi, -16(%rbp)
	movq	-8(%rbp), %rdi
	callq	*-16(%rbp)
	addq	$16, %rsp
	popq	%rbp
	retq
	.cfi_endproc
                                        ## -- End function
	.p2align	4, 0x90         ## -- Begin function _ZNSt3__1L4endlIcNS_11char_traitsIcEEEERNS_13basic_ostreamIT_T0_EES7_
__ZNSt3__1L4endlIcNS_11char_traitsIcEEEERNS_13basic_ostreamIT_T0_EES7_: ## @_ZNSt3__1L4endlIcNS_11char_traitsIcEEEERNS_13basic_ostreamIT_T0_EES7_
	.cfi_startproc
## %bb.0:
	pushq	%rbp
	.cfi_def_cfa_offset 16
	.cfi_offset %rbp, -16
	movq	%rsp, %rbp
	.cfi_def_cfa_register %rbp
	subq	$32, %rsp
	movq	%rdi, -8(%rbp)
	movq	-8(%rbp), %rdi
	movq	-8(%rbp), %rax
	movq	(%rax), %rcx
	movq	-24(%rcx), %rcx
	addq	%rcx, %rax
	movq	%rdi, -16(%rbp)         ## 8-byte Spill
	movq	%rax, %rdi
	movl	$10, %esi
	callq	__ZNKSt3__19basic_iosIcNS_11char_traitsIcEEE5widenEc
	movq	-16(%rbp), %rdi         ## 8-byte Reload
	movsbl	%al, %esi
	callq	__ZNSt3__113basic_ostreamIcNS_11char_traitsIcEEE3putEc
	movq	-8(%rbp), %rdi
	movq	%rax, -24(%rbp)         ## 8-byte Spill
	callq	__ZNSt3__113basic_ostreamIcNS_11char_traitsIcEEE5flushEv
	movq	-8(%rbp), %rcx
	movq	%rax, -32(%rbp)         ## 8-byte Spill
	movq	%rcx, %rax
	addq	$32, %rsp
	popq	%rbp
	retq
	.cfi_endproc
                                        ## -- End function
	.p2align	4, 0x90         ## -- Begin function _ZNKSt3__19basic_iosIcNS_11char_traitsIcEEE5widenEc
__ZNKSt3__19basic_iosIcNS_11char_traitsIcEEE5widenEc: ## @_ZNKSt3__19basic_iosIcNS_11char_traitsIcEEE5widenEc
Lfunc_begin0:
	.cfi_startproc
	.cfi_personality 155, ___gxx_personality_v0
	.cfi_lsda 16, Lexception0
## %bb.0:
	pushq	%rbp
	.cfi_def_cfa_offset 16
	.cfi_offset %rbp, -16
	movq	%rsp, %rbp
	.cfi_def_cfa_register %rbp
	subq	$80, %rsp
                                        ## kill: def $sil killed $sil killed $esi
	movq	%rdi, -8(%rbp)
	movb	%sil, -9(%rbp)
	movq	-8(%rbp), %rsi
	leaq	-24(%rbp), %rax
	movq	%rax, %rdi
	movq	%rax, -48(%rbp)         ## 8-byte Spill
	callq	__ZNKSt3__18ios_base6getlocEv
Ltmp0:
	movq	-48(%rbp), %rdi         ## 8-byte Reload
	callq	__ZNSt3__1L9use_facetINS_5ctypeIcEEEERKT_RKNS_6localeE
Ltmp1:
	movq	%rax, -56(%rbp)         ## 8-byte Spill
	jmp	LBB3_1
LBB3_1:
	movsbl	-9(%rbp), %esi
Ltmp2:
	movq	-56(%rbp), %rdi         ## 8-byte Reload
	callq	__ZNKSt3__15ctypeIcE5widenEc
Ltmp3:
	movb	%al, -57(%rbp)          ## 1-byte Spill
	jmp	LBB3_2
LBB3_2:
	leaq	-24(%rbp), %rdi
	callq	__ZNSt3__16localeD1Ev
	movb	-57(%rbp), %al          ## 1-byte Reload
	movsbl	%al, %eax
	addq	$80, %rsp
	popq	%rbp
	retq
LBB3_3:
Ltmp4:
                                        ## kill: def $edx killed $edx killed $rdx
	movq	%rax, -32(%rbp)
	movl	%edx, -36(%rbp)
Ltmp5:
	leaq	-24(%rbp), %rdi
	callq	__ZNSt3__16localeD1Ev
Ltmp6:
	jmp	LBB3_4
LBB3_4:
	jmp	LBB3_5
LBB3_5:
	movq	-32(%rbp), %rdi
	callq	__Unwind_Resume
	ud2
LBB3_6:
Ltmp7:
	movq	%rax, %rdi
	movq	%rdx, -72(%rbp)         ## 8-byte Spill
	callq	___clang_call_terminate
Lfunc_end0:
	.cfi_endproc
	.section	__TEXT,__gcc_except_tab
	.p2align	2
GCC_except_table3:
Lexception0:
	.byte	255                     ## @LPStart Encoding = omit
	.byte	155                     ## @TType Encoding = indirect pcrel sdata4
	.uleb128 Lttbase0-Lttbaseref0
Lttbaseref0:
	.byte	1                       ## Call site Encoding = uleb128
	.uleb128 Lcst_end0-Lcst_begin0
Lcst_begin0:
	.uleb128 Lfunc_begin0-Lfunc_begin0 ## >> Call Site 1 <<
	.uleb128 Ltmp0-Lfunc_begin0     ##   Call between Lfunc_begin0 and Ltmp0
	.byte	0                       ##     has no landing pad
	.byte	0                       ##   On action: cleanup
	.uleb128 Ltmp0-Lfunc_begin0     ## >> Call Site 2 <<
	.uleb128 Ltmp3-Ltmp0            ##   Call between Ltmp0 and Ltmp3
	.uleb128 Ltmp4-Lfunc_begin0     ##     jumps to Ltmp4
	.byte	0                       ##   On action: cleanup
	.uleb128 Ltmp3-Lfunc_begin0     ## >> Call Site 3 <<
	.uleb128 Ltmp5-Ltmp3            ##   Call between Ltmp3 and Ltmp5
	.byte	0                       ##     has no landing pad
	.byte	0                       ##   On action: cleanup
	.uleb128 Ltmp5-Lfunc_begin0     ## >> Call Site 4 <<
	.uleb128 Ltmp6-Ltmp5            ##   Call between Ltmp5 and Ltmp6
	.uleb128 Ltmp7-Lfunc_begin0     ##     jumps to Ltmp7
	.byte	1                       ##   On action: 1
	.uleb128 Ltmp6-Lfunc_begin0     ## >> Call Site 5 <<
	.uleb128 Lfunc_end0-Ltmp6       ##   Call between Ltmp6 and Lfunc_end0
	.byte	0                       ##     has no landing pad
	.byte	0                       ##   On action: cleanup
Lcst_end0:
	.byte	1                       ## >> Action Record 1 <<
                                        ##   Catch TypeInfo 1
	.byte	0                       ##   No further actions
	.p2align	2
                                        ## >> Catch TypeInfos <<
	.long	0                       ## TypeInfo 1
Lttbase0:
	.p2align	2
                                        ## -- End function
	.section	__TEXT,__text,regular,pure_instructions
	.p2align	4, 0x90         ## -- Begin function _ZNSt3__1L9use_facetINS_5ctypeIcEEEERKT_RKNS_6localeE
__ZNSt3__1L9use_facetINS_5ctypeIcEEEERKT_RKNS_6localeE: ## @_ZNSt3__1L9use_facetINS_5ctypeIcEEEERKT_RKNS_6localeE
	.cfi_startproc
## %bb.0:
	pushq	%rbp
	.cfi_def_cfa_offset 16
	.cfi_offset %rbp, -16
	movq	%rsp, %rbp
	.cfi_def_cfa_register %rbp
	subq	$16, %rsp
	movq	__ZNSt3__15ctypeIcE2idE@GOTPCREL(%rip), %rsi
	movq	%rdi, -8(%rbp)
	movq	-8(%rbp), %rdi
	callq	__ZNKSt3__16locale9use_facetERNS0_2idE
	addq	$16, %rsp
	popq	%rbp
	retq
	.cfi_endproc
                                        ## -- End function
	.p2align	4, 0x90         ## -- Begin function _ZNKSt3__15ctypeIcE5widenEc
__ZNKSt3__15ctypeIcE5widenEc:           ## @_ZNKSt3__15ctypeIcE5widenEc
	.cfi_startproc
## %bb.0:
	pushq	%rbp
	.cfi_def_cfa_offset 16
	.cfi_offset %rbp, -16
	movq	%rsp, %rbp
	.cfi_def_cfa_register %rbp
	subq	$16, %rsp
                                        ## kill: def $sil killed $sil killed $esi
	movq	%rdi, -8(%rbp)
	movb	%sil, -9(%rbp)
	movq	-8(%rbp), %rax
	movb	-9(%rbp), %cl
	movq	(%rax), %rdx
	movq	%rax, %rdi
	movsbl	%cl, %esi
	callq	*56(%rdx)
	movsbl	%al, %eax
	addq	$16, %rsp
	popq	%rbp
	retq
	.cfi_endproc
                                        ## -- End function
	.private_extern	___clang_call_terminate ## -- Begin function __clang_call_terminate
	.globl	___clang_call_terminate
	.weak_definition	___clang_call_terminate
	.p2align	4, 0x90
___clang_call_terminate:                ## @__clang_call_terminate
## %bb.0:
	pushq	%rax
	callq	___cxa_begin_catch
	movq	%rax, (%rsp)            ## 8-byte Spill
	callq	__ZSt9terminatev
                                        ## -- End function

.subsections_via_symbols
