	.section	__TEXT,__text,regular,pure_instructions
	.macosx_version_min 10, 7
	.p2align	4, 0x90
__ZN103_$LT$core..ops..range..RangeFrom$LT$usize$GT$$u20$as$u20$core..slice..SliceIndex$LT$$u5b$T$u5d$$GT$$GT$17get_unchecked_mut17h12a44fe33ad478a3E:
	.cfi_startproc
	pushq	%rbp
	.cfi_def_cfa_offset 16
	.cfi_offset %rbp, -16
	movq	%rsp, %rbp
	.cfi_def_cfa_register %rbp
	subq	$64, %rsp
	movq	%rdi, -24(%rbp)
	movq	%rsi, %rdi
	movq	%rsi, -32(%rbp)
	movq	%rdx, %rsi
	movq	%rdx, -40(%rbp)
	callq	__ZN4core5slice29_$LT$impl$u20$$u5b$T$u5d$$GT$3len17hb98d375eb4d6b061E
	movq	%rax, -48(%rbp)
	movq	-24(%rbp), %rax
	movq	%rax, -16(%rbp)
	movq	-48(%rbp), %rcx
	movq	%rcx, -8(%rbp)
	movq	-16(%rbp), %rdi
	movq	-8(%rbp), %rsi
	movq	-32(%rbp), %rdx
	movq	-40(%rbp), %rcx
	callq	__ZN99_$LT$core..ops..range..Range$LT$usize$GT$$u20$as$u20$core..slice..SliceIndex$LT$$u5b$T$u5d$$GT$$GT$17get_unchecked_mut17h99f5bcd9d1321b4cE
	movq	%rax, -56(%rbp)
	movq	%rdx, -64(%rbp)
	movq	-56(%rbp), %rax
	movq	-64(%rbp), %rdx
	addq	$64, %rsp
	popq	%rbp
	retq
	.cfi_endproc

	.p2align	4, 0x90
__ZN109_$LT$alloc..vec..Vec$LT$T$GT$$u20$as$u20$alloc..vec..SpecExtend$LT$$RF$T$C$core..slice..Iter$LT$T$GT$$GT$$GT$11spec_extend17h14bc3806359edb55E:
	.cfi_startproc
	pushq	%rbp
	.cfi_def_cfa_offset 16
	.cfi_offset %rbp, -16
	movq	%rsp, %rbp
	.cfi_def_cfa_register %rbp
	subq	$112, %rsp
	movq	%rsi, -24(%rbp)
	movq	%rdx, -16(%rbp)
	leaq	-24(%rbp), %rax
	movq	%rdi, -32(%rbp)
	movq	%rax, %rdi
	callq	__ZN4core5slice13Iter$LT$T$GT$8as_slice17h9076d11e4e7d0271E
	movq	%rax, -40(%rbp)
	movq	%rdx, -48(%rbp)
	movq	-40(%rbp), %rdi
	movq	-48(%rbp), %rsi
	callq	__ZN4core5slice29_$LT$impl$u20$$u5b$T$u5d$$GT$3len17hb98d375eb4d6b061E
	movq	%rax, -56(%rbp)
	movq	-32(%rbp), %rdi
	movq	-56(%rbp), %rsi
	callq	__ZN5alloc3vec12Vec$LT$T$GT$7reserve17h1f4029a707b333e0E
	movq	-32(%rbp), %rdi
	callq	__ZN5alloc3vec12Vec$LT$T$GT$3len17h3900a3b4dc66d91eE
	movq	%rax, -64(%rbp)
	movq	-40(%rbp), %rdi
	movq	-48(%rbp), %rsi
	callq	__ZN4core5slice29_$LT$impl$u20$$u5b$T$u5d$$GT$3len17hb98d375eb4d6b061E
	movq	%rax, -72(%rbp)
	movq	-64(%rbp), %rax
	movq	-72(%rbp), %rcx
	addq	%rcx, %rax
	movq	-32(%rbp), %rdi
	movq	%rax, %rsi
	callq	__ZN5alloc3vec12Vec$LT$T$GT$7set_len17h08db4bb7ee0a68d9E
	movq	-32(%rbp), %rdi
	callq	__ZN71_$LT$alloc..vec..Vec$LT$T$GT$$u20$as$u20$core..ops..deref..DerefMut$GT$9deref_mut17ha46a8e8a0c2d26e2E
	movq	%rax, -80(%rbp)
	movq	%rdx, -88(%rbp)
	movq	-64(%rbp), %rax
	movq	%rax, -8(%rbp)
	movq	-8(%rbp), %rdx
	movq	-80(%rbp), %rdi
	movq	-88(%rbp), %rsi
	callq	__ZN4core5slice29_$LT$impl$u20$$u5b$T$u5d$$GT$17get_unchecked_mut17hf3a9c2b057421f94E
	movq	%rax, -96(%rbp)
	movq	%rdx, -104(%rbp)
	movq	-96(%rbp), %rdi
	movq	-104(%rbp), %rsi
	movq	-40(%rbp), %rdx
	movq	-48(%rbp), %rcx
	callq	__ZN4core5slice29_$LT$impl$u20$$u5b$T$u5d$$GT$15copy_from_slice17h8ade77e9a9a11f47E
	addq	$112, %rsp
	popq	%rbp
	retq
	.cfi_endproc

	.p2align	4, 0x90
__ZN119_$LT$core..ptr..non_null..NonNull$LT$T$GT$$u20$as$u20$core..convert..From$LT$core..ptr..unique..Unique$LT$T$GT$$GT$$GT$4from17h437918df5fea7128E:
	.cfi_startproc
	pushq	%rbp
	.cfi_def_cfa_offset 16
	.cfi_offset %rbp, -16
	movq	%rsp, %rbp
	.cfi_def_cfa_register %rbp
	subq	$16, %rsp
	callq	__ZN4core3ptr6unique15Unique$LT$T$GT$6as_ptr17hb18ea22e413ff408E
	movq	%rax, -8(%rbp)
	movq	-8(%rbp), %rdi
	callq	__ZN4core3ptr8non_null16NonNull$LT$T$GT$13new_unchecked17hbb02ffbd1578b9ebE
	movq	%rax, -16(%rbp)
	movq	-16(%rbp), %rax
	addq	$16, %rsp
	popq	%rbp
	retq
	.cfi_endproc

	.p2align	4, 0x90
__ZN119_$LT$core..ptr..unique..Unique$LT$T$GT$$u20$as$u20$core..convert..From$LT$core..ptr..non_null..NonNull$LT$T$GT$$GT$$GT$4from17h2eb347a32a4f7878E:
	.cfi_startproc
	pushq	%rbp
	.cfi_def_cfa_offset 16
	.cfi_offset %rbp, -16
	movq	%rsp, %rbp
	.cfi_def_cfa_register %rbp
	subq	$16, %rsp
	callq	__ZN4core3ptr8non_null16NonNull$LT$T$GT$6as_ptr17h8642ce730d27c8c5E
	movq	%rax, -8(%rbp)
	movq	-8(%rbp), %rdi
	callq	__ZN4core3ptr6unique15Unique$LT$T$GT$13new_unchecked17h4a5acbf6c7eef84eE
	movq	%rax, -16(%rbp)
	movq	-16(%rbp), %rax
	addq	$16, %rsp
	popq	%rbp
	retq
	.cfi_endproc

	.private_extern	__ZN3std2rt10lang_start17hc912caaa477b3a92E
	.globl	__ZN3std2rt10lang_start17hc912caaa477b3a92E
	.p2align	4, 0x90
__ZN3std2rt10lang_start17hc912caaa477b3a92E:
	.cfi_startproc
	pushq	%rbp
	.cfi_def_cfa_offset 16
	.cfi_offset %rbp, -16
	movq	%rsp, %rbp
	.cfi_def_cfa_register %rbp
	subq	$32, %rsp
	leaq	l___unnamed_1(%rip), %rax
	movq	%rdi, -8(%rbp)
	leaq	-8(%rbp), %rcx
	movq	%rcx, %rdi
	movq	%rsi, -16(%rbp)
	movq	%rax, %rsi
	movq	-16(%rbp), %rax
	movq	%rdx, -24(%rbp)
	movq	%rax, %rdx
	movq	-24(%rbp), %rcx
	callq	__ZN3std2rt19lang_start_internal17h8e563903bf99e7c1E
	movq	%rax, -32(%rbp)
	movq	-32(%rbp), %rax
	addq	$32, %rsp
	popq	%rbp
	retq
	.cfi_endproc

	.p2align	4, 0x90
__ZN3std2rt10lang_start28_$u7b$$u7b$closure$u7d$$u7d$17he8938e6745e3b6c7E:
	.cfi_startproc
	pushq	%rbp
	.cfi_def_cfa_offset 16
	.cfi_offset %rbp, -16
	movq	%rsp, %rbp
	.cfi_def_cfa_register %rbp
	subq	$16, %rsp
	callq	*(%rdi)
	callq	__ZN54_$LT$$LP$$RP$$u20$as$u20$std..process..Termination$GT$6report17h5f47869f7ef05b88E
	movl	%eax, -4(%rbp)
	movl	-4(%rbp), %eax
	addq	$16, %rsp
	popq	%rbp
	retq
	.cfi_endproc

	.p2align	4, 0x90
__ZN3std3sys4unix7process14process_common8ExitCode6as_i3217hf8253168d92e9a4cE:
	.cfi_startproc
	pushq	%rbp
	.cfi_def_cfa_offset 16
	.cfi_offset %rbp, -16
	movq	%rsp, %rbp
	.cfi_def_cfa_register %rbp
	movzbl	(%rdi), %eax
	popq	%rbp
	retq
	.cfi_endproc

	.p2align	4, 0x90
__ZN42_$LT$$RF$T$u20$as$u20$core..fmt..Debug$GT$3fmt17h229b4fe15ca62defE:
	.cfi_startproc
	pushq	%rbp
	.cfi_def_cfa_offset 16
	.cfi_offset %rbp, -16
	movq	%rsp, %rbp
	.cfi_def_cfa_register %rbp
	subq	$16, %rsp
	movq	(%rdi), %rax
	movq	8(%rdi), %rcx
	movq	%rax, %rdi
	callq	*24(%rcx)
	movb	%al, -1(%rbp)
	movb	-1(%rbp), %al
	andb	$1, %al
	movzbl	%al, %eax
	addq	$16, %rsp
	popq	%rbp
	retq
	.cfi_endproc

	.p2align	4, 0x90
__ZN42_$LT$$RF$T$u20$as$u20$core..fmt..Debug$GT$3fmt17h615a16866fd98d13E:
	.cfi_startproc
	pushq	%rbp
	.cfi_def_cfa_offset 16
	.cfi_offset %rbp, -16
	movq	%rsp, %rbp
	.cfi_def_cfa_register %rbp
	subq	$16, %rsp
	movq	(%rdi), %rdi
	callq	__ZN4core3fmt3num52_$LT$impl$u20$core..fmt..Debug$u20$for$u20$usize$GT$3fmt17hbbc0b0f0345f76d2E
	movb	%al, -1(%rbp)
	movb	-1(%rbp), %al
	andb	$1, %al
	movzbl	%al, %eax
	addq	$16, %rsp
	popq	%rbp
	retq
	.cfi_endproc

	.p2align	4, 0x90
__ZN4core10intrinsics19copy_nonoverlapping17ha073635131768003E:
	.cfi_startproc
	pushq	%rbp
	.cfi_def_cfa_offset 16
	.cfi_offset %rbp, -16
	movq	%rsp, %rbp
	.cfi_def_cfa_register %rbp
	subq	$16, %rsp
	shlq	$0, %rdx
	movq	%rdi, -8(%rbp)
	movq	%rsi, %rdi
	movq	-8(%rbp), %rsi
	callq	_memcpy
	addq	$16, %rsp
	popq	%rbp
	retq
	.cfi_endproc

	.p2align	4, 0x90
__ZN4core3cmp3Ord3max17h14f8a45174dceae4E:
	.cfi_startproc
	pushq	%rbp
	.cfi_def_cfa_offset 16
	.cfi_offset %rbp, -16
	movq	%rsp, %rbp
	.cfi_def_cfa_register %rbp
	subq	$16, %rsp
	callq	__ZN4core3cmp6max_by17h1958575196bf59d0E
	movq	%rax, -8(%rbp)
	movq	-8(%rbp), %rax
	addq	$16, %rsp
	popq	%rbp
	retq
	.cfi_endproc

	.p2align	4, 0x90
__ZN4core3cmp3max17h0a44bda2f3923f29E:
	.cfi_startproc
	pushq	%rbp
	.cfi_def_cfa_offset 16
	.cfi_offset %rbp, -16
	movq	%rsp, %rbp
	.cfi_def_cfa_register %rbp
	subq	$16, %rsp
	callq	__ZN4core3cmp3Ord3max17h14f8a45174dceae4E
	movq	%rax, -8(%rbp)
	movq	-8(%rbp), %rax
	addq	$16, %rsp
	popq	%rbp
	retq
	.cfi_endproc

	.p2align	4, 0x90
__ZN4core3cmp5impls50_$LT$impl$u20$core..cmp..Ord$u20$for$u20$usize$GT$3cmp17h5813eeca5ba7c254E:
	.cfi_startproc
	pushq	%rbp
	.cfi_def_cfa_offset 16
	.cfi_offset %rbp, -16
	movq	%rsp, %rbp
	.cfi_def_cfa_register %rbp
	subq	$24, %rsp
	movq	(%rdi), %rax
	cmpq	(%rsi), %rax
	movq	%rdi, -16(%rbp)
	movq	%rsi, -24(%rbp)
	jb	LBB12_2
	movq	-16(%rbp), %rax
	movq	(%rax), %rcx
	movq	-24(%rbp), %rdx
	cmpq	(%rdx), %rcx
	je	LBB12_4
	jmp	LBB12_3
LBB12_2:
	movb	$-1, -1(%rbp)
	jmp	LBB12_6
LBB12_3:
	movb	$1, -1(%rbp)
	jmp	LBB12_5
LBB12_4:
	movb	$0, -1(%rbp)
LBB12_5:
	jmp	LBB12_6
LBB12_6:
	movb	-1(%rbp), %al
	addq	$24, %rsp
	popq	%rbp
	retq
	.cfi_endproc

	.p2align	4, 0x90
__ZN4core3cmp6max_by17h1958575196bf59d0E:
Lfunc_begin0:
	.cfi_startproc
	.cfi_personality 155, _rust_eh_personality
	.cfi_lsda 16, Lexception0
	pushq	%rbp
	.cfi_def_cfa_offset 16
	.cfi_offset %rbp, -16
	movq	%rsp, %rbp
	.cfi_def_cfa_register %rbp
	subq	$80, %rsp
	movq	%rdi, -72(%rbp)
	movq	%rsi, -64(%rbp)
	movb	$0, -18(%rbp)
	movb	$0, -17(%rbp)
	movb	$1, -18(%rbp)
	movb	$1, -17(%rbp)
	leaq	-72(%rbp), %rax
	movq	%rax, -40(%rbp)
	leaq	-64(%rbp), %rax
	movq	%rax, -32(%rbp)
	movq	-40(%rbp), %rdi
	movq	-32(%rbp), %rsi
Ltmp0:
	callq	__ZN4core3ops8function6FnOnce9call_once17h1d44b1ea63d72bf6E
Ltmp1:
	movb	%al, -73(%rbp)
	jmp	LBB13_2
LBB13_1:
	movq	-16(%rbp), %rdi
	callq	__Unwind_Resume
	ud2
LBB13_2:
	movb	-73(%rbp), %al
	movb	%al, -41(%rbp)
	movsbq	-41(%rbp), %rcx
	incq	%rcx
	subq	$2, %rcx
	jb	LBB13_7
	jmp	LBB13_15
LBB13_15:
	jmp	LBB13_5
LBB13_3:
	testb	$1, -18(%rbp)
	jne	LBB13_11
	jmp	LBB13_1
LBB13_4:
	movb	$0, -17(%rbp)
	jmp	LBB13_3
LBB13_5:
	movb	$0, -18(%rbp)
	movq	-72(%rbp), %rax
	movq	%rax, -56(%rbp)
	jmp	LBB13_8
	ud2
LBB13_7:
	movb	$0, -17(%rbp)
	movq	-64(%rbp), %rax
	movq	%rax, -56(%rbp)
LBB13_8:
	testb	$1, -17(%rbp)
	jne	LBB13_12
LBB13_9:
	testb	$1, -18(%rbp)
	jne	LBB13_13
LBB13_10:
	movq	-56(%rbp), %rax
	addq	$80, %rsp
	popq	%rbp
	retq
LBB13_11:
	movb	$0, -18(%rbp)
	jmp	LBB13_1
LBB13_12:
	movb	$0, -17(%rbp)
	jmp	LBB13_9
LBB13_13:
	movb	$0, -18(%rbp)
	jmp	LBB13_10
LBB13_14:
Ltmp2:
	movq	%rax, -16(%rbp)
	movl	%edx, -8(%rbp)
	jmp	LBB13_4
Lfunc_end0:
	.cfi_endproc
	.section	__TEXT,__gcc_except_tab
	.p2align	2
GCC_except_table13:
Lexception0:
	.byte	255
	.byte	255
	.byte	1
	.uleb128 Lcst_end0-Lcst_begin0
Lcst_begin0:
	.uleb128 Ltmp0-Lfunc_begin0
	.uleb128 Ltmp1-Ltmp0
	.uleb128 Ltmp2-Lfunc_begin0
	.byte	0
	.uleb128 Ltmp1-Lfunc_begin0
	.uleb128 Lfunc_end0-Ltmp1
	.byte	0
	.byte	0
Lcst_end0:
	.p2align	2

	.section	__TEXT,__text,regular,pure_instructions
	.p2align	4, 0x90
__ZN4core3fmt10ArgumentV13new17h7baa577d8eb1cb4bE:
	.cfi_startproc
	pushq	%rbp
	.cfi_def_cfa_offset 16
	.cfi_offset %rbp, -16
	movq	%rsp, %rbp
	.cfi_def_cfa_register %rbp
	subq	$56, %rsp
	movq	%rsi, -16(%rbp)
	movq	-16(%rbp), %rax
	movq	%rdi, -40(%rbp)
	movq	%rax, -48(%rbp)
	movq	-40(%rbp), %rax
	movq	%rax, -8(%rbp)
	movq	-8(%rbp), %rcx
	movq	%rcx, -56(%rbp)
	movq	-56(%rbp), %rax
	movq	%rax, -32(%rbp)
	movq	-48(%rbp), %rcx
	movq	%rcx, -24(%rbp)
	movq	-32(%rbp), %rax
	movq	-24(%rbp), %rdx
	addq	$56, %rsp
	popq	%rbp
	retq
	.cfi_endproc

	.p2align	4, 0x90
__ZN4core3fmt10ArgumentV13new17h8d3cb201fc7b1f52E:
	.cfi_startproc
	pushq	%rbp
	.cfi_def_cfa_offset 16
	.cfi_offset %rbp, -16
	movq	%rsp, %rbp
	.cfi_def_cfa_register %rbp
	subq	$56, %rsp
	movq	%rsi, -16(%rbp)
	movq	-16(%rbp), %rax
	movq	%rdi, -40(%rbp)
	movq	%rax, -48(%rbp)
	movq	-40(%rbp), %rax
	movq	%rax, -8(%rbp)
	movq	-8(%rbp), %rcx
	movq	%rcx, -56(%rbp)
	movq	-56(%rbp), %rax
	movq	%rax, -32(%rbp)
	movq	-48(%rbp), %rcx
	movq	%rcx, -24(%rbp)
	movq	-32(%rbp), %rax
	movq	-24(%rbp), %rdx
	addq	$56, %rsp
	popq	%rbp
	retq
	.cfi_endproc

	.p2align	4, 0x90
__ZN4core3fmt10ArgumentV13new17hc2f42a2f21425d64E:
	.cfi_startproc
	pushq	%rbp
	.cfi_def_cfa_offset 16
	.cfi_offset %rbp, -16
	movq	%rsp, %rbp
	.cfi_def_cfa_register %rbp
	subq	$56, %rsp
	movq	%rsi, -16(%rbp)
	movq	-16(%rbp), %rax
	movq	%rdi, -40(%rbp)
	movq	%rax, -48(%rbp)
	movq	-40(%rbp), %rax
	movq	%rax, -8(%rbp)
	movq	-8(%rbp), %rcx
	movq	%rcx, -56(%rbp)
	movq	-56(%rbp), %rax
	movq	%rax, -32(%rbp)
	movq	-48(%rbp), %rcx
	movq	%rcx, -24(%rbp)
	movq	-32(%rbp), %rax
	movq	-24(%rbp), %rdx
	addq	$56, %rsp
	popq	%rbp
	retq
	.cfi_endproc

	.p2align	4, 0x90
__ZN4core3fmt3num50_$LT$impl$u20$core..fmt..Debug$u20$for$u20$i32$GT$3fmt17h5d89f35dbd4503a6E:
	.cfi_startproc
	pushq	%rbp
	.cfi_def_cfa_offset 16
	.cfi_offset %rbp, -16
	movq	%rsp, %rbp
	.cfi_def_cfa_register %rbp
	subq	$32, %rsp
	movq	%rdi, -16(%rbp)
	movq	%rsi, %rdi
	movq	%rsi, -24(%rbp)
	callq	__ZN4core3fmt9Formatter15debug_lower_hex17h433b1b7083cbeebaE
	movb	%al, -25(%rbp)
	movb	-25(%rbp), %al
	testb	$1, %al
	jne	LBB17_3
	jmp	LBB17_2
LBB17_2:
	movq	-24(%rbp), %rdi
	callq	__ZN4core3fmt9Formatter15debug_upper_hex17h06b2ec2bdd4c7bb7E
	movb	%al, -26(%rbp)
	jmp	LBB17_5
LBB17_3:
	movq	-16(%rbp), %rdi
	movq	-24(%rbp), %rsi
	callq	__ZN4core3fmt3num53_$LT$impl$u20$core..fmt..LowerHex$u20$for$u20$i32$GT$3fmt17he07c6c0a84d85facE
	andb	$1, %al
	movb	%al, -1(%rbp)
	jmp	LBB17_11
LBB17_5:
	movb	-26(%rbp), %al
	testb	$1, %al
	jne	LBB17_7
	jmp	LBB17_6
LBB17_6:
	movq	-16(%rbp), %rdi
	movq	-24(%rbp), %rsi
	callq	__ZN4core3fmt3num3imp52_$LT$impl$u20$core..fmt..Display$u20$for$u20$i32$GT$3fmt17h65f287211a9b992aE
	andb	$1, %al
	movb	%al, -1(%rbp)
	jmp	LBB17_9
LBB17_7:
	movq	-16(%rbp), %rdi
	movq	-24(%rbp), %rsi
	callq	__ZN4core3fmt3num53_$LT$impl$u20$core..fmt..UpperHex$u20$for$u20$i32$GT$3fmt17hde13cbe1ea08f39fE
	andb	$1, %al
	movb	%al, -1(%rbp)
	jmp	LBB17_10
LBB17_9:
	jmp	LBB17_10
LBB17_10:
	jmp	LBB17_11
LBB17_11:
	movb	-1(%rbp), %al
	andb	$1, %al
	movzbl	%al, %eax
	addq	$32, %rsp
	popq	%rbp
	retq
	.cfi_endproc

	.p2align	4, 0x90
__ZN4core3fmt3num52_$LT$impl$u20$core..fmt..Debug$u20$for$u20$usize$GT$3fmt17hbbc0b0f0345f76d2E:
	.cfi_startproc
	pushq	%rbp
	.cfi_def_cfa_offset 16
	.cfi_offset %rbp, -16
	movq	%rsp, %rbp
	.cfi_def_cfa_register %rbp
	subq	$32, %rsp
	movq	%rdi, -16(%rbp)
	movq	%rsi, %rdi
	movq	%rsi, -24(%rbp)
	callq	__ZN4core3fmt9Formatter15debug_lower_hex17h433b1b7083cbeebaE
	movb	%al, -25(%rbp)
	movb	-25(%rbp), %al
	testb	$1, %al
	jne	LBB18_3
	jmp	LBB18_2
LBB18_2:
	movq	-24(%rbp), %rdi
	callq	__ZN4core3fmt9Formatter15debug_upper_hex17h06b2ec2bdd4c7bb7E
	movb	%al, -26(%rbp)
	jmp	LBB18_5
LBB18_3:
	movq	-16(%rbp), %rdi
	movq	-24(%rbp), %rsi
	callq	__ZN4core3fmt3num55_$LT$impl$u20$core..fmt..LowerHex$u20$for$u20$usize$GT$3fmt17hd083c5c270a85581E
	andb	$1, %al
	movb	%al, -1(%rbp)
	jmp	LBB18_11
LBB18_5:
	movb	-26(%rbp), %al
	testb	$1, %al
	jne	LBB18_7
	jmp	LBB18_6
LBB18_6:
	movq	-16(%rbp), %rdi
	movq	-24(%rbp), %rsi
	callq	__ZN4core3fmt3num3imp54_$LT$impl$u20$core..fmt..Display$u20$for$u20$usize$GT$3fmt17h86d223c798e22183E
	andb	$1, %al
	movb	%al, -1(%rbp)
	jmp	LBB18_9
LBB18_7:
	movq	-16(%rbp), %rdi
	movq	-24(%rbp), %rsi
	callq	__ZN4core3fmt3num55_$LT$impl$u20$core..fmt..UpperHex$u20$for$u20$usize$GT$3fmt17h5c9ae68e70b994dfE
	andb	$1, %al
	movb	%al, -1(%rbp)
	jmp	LBB18_10
LBB18_9:
	jmp	LBB18_10
LBB18_10:
	jmp	LBB18_11
LBB18_11:
	movb	-1(%rbp), %al
	andb	$1, %al
	movzbl	%al, %eax
	addq	$32, %rsp
	popq	%rbp
	retq
	.cfi_endproc

	.p2align	4, 0x90
__ZN4core3fmt9Arguments6new_v117h0b48b04e97b6ca25E:
	.cfi_startproc
	pushq	%rbp
	.cfi_def_cfa_offset 16
	.cfi_offset %rbp, -16
	movq	%rsp, %rbp
	.cfi_def_cfa_register %rbp
	subq	$16, %rsp
	movq	%rdi, %rax
	movq	$0, -16(%rbp)
	movq	%rsi, (%rdi)
	movq	%rdx, 8(%rdi)
	movq	-16(%rbp), %rdx
	movq	-8(%rbp), %rsi
	movq	%rdx, 16(%rdi)
	movq	%rsi, 24(%rdi)
	movq	%rcx, 32(%rdi)
	movq	%r8, 40(%rdi)
	addq	$16, %rsp
	popq	%rbp
	retq
	.cfi_endproc

	.p2align	4, 0x90
__ZN4core3num12NonZeroUsize13new_unchecked17h0c7dc608ceccc7eaE:
	.cfi_startproc
	pushq	%rbp
	.cfi_def_cfa_offset 16
	.cfi_offset %rbp, -16
	movq	%rsp, %rbp
	.cfi_def_cfa_register %rbp
	pushq	%rax
	movq	%rdi, -8(%rbp)
	movq	-8(%rbp), %rax
	addq	$8, %rsp
	popq	%rbp
	retq
	.cfi_endproc

	.p2align	4, 0x90
__ZN4core3num12NonZeroUsize3get17h28bf150232209f7eE:
	.cfi_startproc
	pushq	%rbp
	.cfi_def_cfa_offset 16
	.cfi_offset %rbp, -16
	movq	%rsp, %rbp
	.cfi_def_cfa_register %rbp
	movq	%rdi, %rax
	popq	%rbp
	retq
	.cfi_endproc

	.p2align	4, 0x90
__ZN4core3num23_$LT$impl$u20$usize$GT$10count_ones17he1a186a330dda859E:
	.cfi_startproc
	pushq	%rbp
	.cfi_def_cfa_offset 16
	.cfi_offset %rbp, -16
	movq	%rsp, %rbp
	.cfi_def_cfa_register %rbp
	subq	$16, %rsp
	movq	%rdi, %rax
	shrq	%rax
	movabsq	$6148914691236517205, %rcx
	andq	%rcx, %rax
	subq	%rax, %rdi
	movabsq	$3689348814741910323, %rax
	movq	%rdi, %rcx
	andq	%rax, %rcx
	shrq	$2, %rdi
	andq	%rax, %rdi
	addq	%rdi, %rcx
	movq	%rcx, %rax
	shrq	$4, %rax
	addq	%rax, %rcx
	movabsq	$1085102592571150095, %rax
	andq	%rax, %rcx
	movabsq	$72340172838076673, %rax
	imulq	%rax, %rcx
	shrq	$56, %rcx
	movq	%rcx, -8(%rbp)
	movq	-8(%rbp), %rax
	movq	%rax, -16(%rbp)
	movq	-16(%rbp), %rax
	movl	%eax, %ecx
	movl	%ecx, %eax
	addq	$16, %rsp
	popq	%rbp
	retq
	.cfi_endproc

	.p2align	4, 0x90
__ZN4core3num23_$LT$impl$u20$usize$GT$11checked_add17h098b2f8ef78fa922E:
	.cfi_startproc
	pushq	%rbp
	.cfi_def_cfa_offset 16
	.cfi_offset %rbp, -16
	movq	%rsp, %rbp
	.cfi_def_cfa_register %rbp
	subq	$32, %rsp
	callq	__ZN4core3num23_$LT$impl$u20$usize$GT$15overflowing_add17hf286d63b568af8f3E
	movq	%rax, -24(%rbp)
	movb	%dl, -25(%rbp)
	movb	-25(%rbp), %al
	testb	$1, %al
	jne	LBB23_3
	jmp	LBB23_2
LBB23_2:
	movq	-24(%rbp), %rax
	movq	%rax, -8(%rbp)
	movq	$1, -16(%rbp)
	jmp	LBB23_4
LBB23_3:
	movq	$0, -16(%rbp)
LBB23_4:
	movq	-16(%rbp), %rax
	movq	-8(%rbp), %rdx
	addq	$32, %rsp
	popq	%rbp
	retq
	.cfi_endproc

	.p2align	4, 0x90
__ZN4core3num23_$LT$impl$u20$usize$GT$11checked_mul17h69f30027036a266aE:
	.cfi_startproc
	pushq	%rbp
	.cfi_def_cfa_offset 16
	.cfi_offset %rbp, -16
	movq	%rsp, %rbp
	.cfi_def_cfa_register %rbp
	subq	$32, %rsp
	callq	__ZN4core3num23_$LT$impl$u20$usize$GT$15overflowing_mul17hd9cfab83cf0514f9E
	movq	%rax, -24(%rbp)
	movb	%dl, -25(%rbp)
	movb	-25(%rbp), %al
	testb	$1, %al
	jne	LBB24_3
	jmp	LBB24_2
LBB24_2:
	movq	-24(%rbp), %rax
	movq	%rax, -8(%rbp)
	movq	$1, -16(%rbp)
	jmp	LBB24_4
LBB24_3:
	movq	$0, -16(%rbp)
LBB24_4:
	movq	-16(%rbp), %rax
	movq	-8(%rbp), %rdx
	addq	$32, %rsp
	popq	%rbp
	retq
	.cfi_endproc

	.p2align	4, 0x90
__ZN4core3num23_$LT$impl$u20$usize$GT$12wrapping_add17hcade03dc7b7b7a8cE:
	.cfi_startproc
	pushq	%rbp
	.cfi_def_cfa_offset 16
	.cfi_offset %rbp, -16
	movq	%rsp, %rbp
	.cfi_def_cfa_register %rbp
	subq	$16, %rsp
	addq	%rsi, %rdi
	movq	%rdi, -8(%rbp)
	movq	-8(%rbp), %rax
	movq	%rax, -16(%rbp)
	movq	-16(%rbp), %rax
	addq	$16, %rsp
	popq	%rbp
	retq
	.cfi_endproc

	.p2align	4, 0x90
__ZN4core3num23_$LT$impl$u20$usize$GT$12wrapping_sub17h148cea78d433e7d9E:
	.cfi_startproc
	pushq	%rbp
	.cfi_def_cfa_offset 16
	.cfi_offset %rbp, -16
	movq	%rsp, %rbp
	.cfi_def_cfa_register %rbp
	subq	$16, %rsp
	subq	%rsi, %rdi
	movq	%rdi, -8(%rbp)
	movq	-8(%rbp), %rax
	movq	%rax, -16(%rbp)
	movq	-16(%rbp), %rax
	addq	$16, %rsp
	popq	%rbp
	retq
	.cfi_endproc

	.p2align	4, 0x90
__ZN4core3num23_$LT$impl$u20$usize$GT$15is_power_of_two17h58c6aae39d435474E:
	.cfi_startproc
	pushq	%rbp
	.cfi_def_cfa_offset 16
	.cfi_offset %rbp, -16
	movq	%rsp, %rbp
	.cfi_def_cfa_register %rbp
	subq	$16, %rsp
	callq	__ZN4core3num23_$LT$impl$u20$usize$GT$10count_ones17he1a186a330dda859E
	movl	%eax, -4(%rbp)
	movl	-4(%rbp), %eax
	cmpl	$1, %eax
	sete	%cl
	andb	$1, %cl
	movzbl	%cl, %eax
	addq	$16, %rsp
	popq	%rbp
	retq
	.cfi_endproc

	.p2align	4, 0x90
__ZN4core3num23_$LT$impl$u20$usize$GT$15overflowing_add17hf286d63b568af8f3E:
	.cfi_startproc
	pushq	%rbp
	.cfi_def_cfa_offset 16
	.cfi_offset %rbp, -16
	movq	%rsp, %rbp
	.cfi_def_cfa_register %rbp
	subq	$48, %rsp
	addq	%rsi, %rdi
	setb	%al
	andb	$1, %al
	movq	%rdi, -16(%rbp)
	movb	%al, -8(%rbp)
	movq	-16(%rbp), %rcx
	movb	-8(%rbp), %al
	movq	%rcx, -40(%rbp)
	movb	%al, -41(%rbp)
	movq	-40(%rbp), %rax
	movq	%rax, -32(%rbp)
	movb	-41(%rbp), %cl
	andb	$1, %cl
	movb	%cl, -24(%rbp)
	movq	-32(%rbp), %rax
	movb	-24(%rbp), %dl
	addq	$48, %rsp
	popq	%rbp
	retq
	.cfi_endproc

	.p2align	4, 0x90
__ZN4core3num23_$LT$impl$u20$usize$GT$15overflowing_mul17hd9cfab83cf0514f9E:
	.cfi_startproc
	pushq	%rbp
	.cfi_def_cfa_offset 16
	.cfi_offset %rbp, -16
	movq	%rsp, %rbp
	.cfi_def_cfa_register %rbp
	subq	$48, %rsp
	movq	%rdi, %rax
	mulq	%rsi
	seto	%cl
	andb	$1, %cl
	movq	%rax, -16(%rbp)
	movb	%cl, -8(%rbp)
	movq	-16(%rbp), %rax
	movb	-8(%rbp), %cl
	movq	%rax, -40(%rbp)
	movb	%cl, -41(%rbp)
	movq	-40(%rbp), %rax
	movq	%rax, -32(%rbp)
	movb	-41(%rbp), %cl
	andb	$1, %cl
	movb	%cl, -24(%rbp)
	movq	-32(%rbp), %rax
	movb	-24(%rbp), %dl
	addq	$48, %rsp
	popq	%rbp
	retq
	.cfi_endproc

	.p2align	4, 0x90
__ZN4core3ops8function6FnOnce40call_once$u7b$$u7b$vtable.shim$u7d$$u7d$17h2cd2b2a3f27076a5E:
	.cfi_startproc
	pushq	%rbp
	.cfi_def_cfa_offset 16
	.cfi_offset %rbp, -16
	movq	%rsp, %rbp
	.cfi_def_cfa_register %rbp
	subq	$16, %rsp
	movq	(%rdi), %rdi
	callq	__ZN4core3ops8function6FnOnce9call_once17h613108dc398a1d22E
	movl	%eax, -12(%rbp)
	movl	-12(%rbp), %eax
	addq	$16, %rsp
	popq	%rbp
	retq
	.cfi_endproc

	.p2align	4, 0x90
__ZN4core3ops8function6FnOnce9call_once17h1d44b1ea63d72bf6E:
	.cfi_startproc
	pushq	%rbp
	.cfi_def_cfa_offset 16
	.cfi_offset %rbp, -16
	movq	%rsp, %rbp
	.cfi_def_cfa_register %rbp
	subq	$32, %rsp
	movq	%rdi, -16(%rbp)
	movq	%rsi, -8(%rbp)
	movq	-16(%rbp), %rdi
	movq	-8(%rbp), %rsi
	callq	__ZN4core3cmp5impls50_$LT$impl$u20$core..cmp..Ord$u20$for$u20$usize$GT$3cmp17h5813eeca5ba7c254E
	movb	%al, -17(%rbp)
	movb	-17(%rbp), %al
	addq	$32, %rsp
	popq	%rbp
	retq
	.cfi_endproc

	.p2align	4, 0x90
__ZN4core3ops8function6FnOnce9call_once17h613108dc398a1d22E:
Lfunc_begin1:
	.cfi_startproc
	.cfi_personality 155, _rust_eh_personality
	.cfi_lsda 16, Lexception1
	pushq	%rbp
	.cfi_def_cfa_offset 16
	.cfi_offset %rbp, -16
	movq	%rsp, %rbp
	.cfi_def_cfa_register %rbp
	subq	$48, %rsp
	movq	%rdi, -32(%rbp)
Ltmp3:
	leaq	-32(%rbp), %rdi
	callq	__ZN3std2rt10lang_start28_$u7b$$u7b$closure$u7d$$u7d$17he8938e6745e3b6c7E
Ltmp4:
	movl	%eax, -36(%rbp)
	jmp	LBB32_1
LBB32_1:
	jmp	LBB32_2
LBB32_2:
	movl	-36(%rbp), %eax
	addq	$48, %rsp
	popq	%rbp
	retq
LBB32_3:
	jmp	LBB32_4
LBB32_4:
	movq	-16(%rbp), %rdi
	callq	__Unwind_Resume
	ud2
LBB32_5:
Ltmp5:
	movq	%rax, -16(%rbp)
	movl	%edx, -8(%rbp)
	jmp	LBB32_3
Lfunc_end1:
	.cfi_endproc
	.section	__TEXT,__gcc_except_tab
	.p2align	2
GCC_except_table32:
Lexception1:
	.byte	255
	.byte	255
	.byte	1
	.uleb128 Lcst_end1-Lcst_begin1
Lcst_begin1:
	.uleb128 Ltmp3-Lfunc_begin1
	.uleb128 Ltmp4-Ltmp3
	.uleb128 Ltmp5-Lfunc_begin1
	.byte	0
	.uleb128 Ltmp4-Lfunc_begin1
	.uleb128 Lfunc_end1-Ltmp4
	.byte	0
	.byte	0
Lcst_end1:
	.p2align	2

	.section	__TEXT,__text,regular,pure_instructions
	.p2align	4, 0x90
__ZN4core3ptr13drop_in_place17h0e83479d9c4c5b63E:
	.cfi_startproc
	pushq	%rbp
	.cfi_def_cfa_offset 16
	.cfi_offset %rbp, -16
	movq	%rsp, %rbp
	.cfi_def_cfa_register %rbp
	popq	%rbp
	retq
	.cfi_endproc

	.p2align	4, 0x90
__ZN4core3ptr13drop_in_place17h114df5bd5598a58fE:
	.cfi_startproc
	pushq	%rbp
	.cfi_def_cfa_offset 16
	.cfi_offset %rbp, -16
	movq	%rsp, %rbp
	.cfi_def_cfa_register %rbp
	popq	%rbp
	retq
	.cfi_endproc

	.p2align	4, 0x90
__ZN4core3ptr13drop_in_place17h4b1c46fd3ce317f9E:
	.cfi_startproc
	pushq	%rbp
	.cfi_def_cfa_offset 16
	.cfi_offset %rbp, -16
	movq	%rsp, %rbp
	.cfi_def_cfa_register %rbp
	popq	%rbp
	retq
	.cfi_endproc

	.p2align	4, 0x90
__ZN4core3ptr13drop_in_place17h9b4cf4d478ec339dE:
Lfunc_begin2:
	.cfi_startproc
	.cfi_personality 155, _rust_eh_personality
	.cfi_lsda 16, Lexception2
	pushq	%rbp
	.cfi_def_cfa_offset 16
	.cfi_offset %rbp, -16
	movq	%rsp, %rbp
	.cfi_def_cfa_register %rbp
	subq	$32, %rsp
Ltmp6:
	movq	%rdi, -24(%rbp)
	callq	__ZN66_$LT$alloc..vec..Vec$LT$T$GT$$u20$as$u20$core..ops..drop..Drop$GT$4drop17he25a5cf9c8f9ffe9E
Ltmp7:
	jmp	LBB36_4
LBB36_1:
	movq	-16(%rbp), %rdi
	callq	__Unwind_Resume
	ud2
LBB36_2:
	addq	$32, %rsp
	popq	%rbp
	retq
LBB36_3:
	movq	-24(%rbp), %rax
	movq	%rax, %rdi
	callq	__ZN4core3ptr13drop_in_place17ha27d2406893ec389E
	jmp	LBB36_1
LBB36_4:
	movq	-24(%rbp), %rax
	movq	%rax, %rdi
	callq	__ZN4core3ptr13drop_in_place17ha27d2406893ec389E
	jmp	LBB36_2
LBB36_5:
Ltmp8:
	movq	%rax, -16(%rbp)
	movl	%edx, -8(%rbp)
	jmp	LBB36_3
Lfunc_end2:
	.cfi_endproc
	.section	__TEXT,__gcc_except_tab
	.p2align	2
GCC_except_table36:
Lexception2:
	.byte	255
	.byte	255
	.byte	1
	.uleb128 Lcst_end2-Lcst_begin2
Lcst_begin2:
	.uleb128 Ltmp6-Lfunc_begin2
	.uleb128 Ltmp7-Ltmp6
	.uleb128 Ltmp8-Lfunc_begin2
	.byte	0
	.uleb128 Ltmp7-Lfunc_begin2
	.uleb128 Lfunc_end2-Ltmp7
	.byte	0
	.byte	0
Lcst_end2:
	.p2align	2

	.section	__TEXT,__text,regular,pure_instructions
	.p2align	4, 0x90
__ZN4core3ptr13drop_in_place17ha27d2406893ec389E:
	.cfi_startproc
	pushq	%rbp
	.cfi_def_cfa_offset 16
	.cfi_offset %rbp, -16
	movq	%rsp, %rbp
	.cfi_def_cfa_register %rbp
	callq	__ZN77_$LT$alloc..raw_vec..RawVec$LT$T$C$A$GT$$u20$as$u20$core..ops..drop..Drop$GT$4drop17hc823d78de8a29af7E
	popq	%rbp
	retq
	.cfi_endproc

	.p2align	4, 0x90
__ZN4core3ptr13drop_in_place17hba046b70022b5d8eE:
	.cfi_startproc
	pushq	%rbp
	.cfi_def_cfa_offset 16
	.cfi_offset %rbp, -16
	movq	%rsp, %rbp
	.cfi_def_cfa_register %rbp
	popq	%rbp
	retq
	.cfi_endproc

	.p2align	4, 0x90
__ZN4core3ptr13drop_in_place17hc64a49d5a152f264E:
	.cfi_startproc
	pushq	%rbp
	.cfi_def_cfa_offset 16
	.cfi_offset %rbp, -16
	movq	%rsp, %rbp
	.cfi_def_cfa_register %rbp
	callq	__ZN4core3ptr13drop_in_place17h9b4cf4d478ec339dE
	popq	%rbp
	retq
	.cfi_endproc

	.p2align	4, 0x90
__ZN4core3ptr20slice_from_raw_parts17hc7efd517ed090197E:
	.cfi_startproc
	pushq	%rbp
	.cfi_def_cfa_offset 16
	.cfi_offset %rbp, -16
	movq	%rsp, %rbp
	.cfi_def_cfa_register %rbp
	subq	$32, %rsp
	movq	%rdi, -16(%rbp)
	movq	%rsi, -8(%rbp)
	movq	-16(%rbp), %rax
	movq	-8(%rbp), %rcx
	movq	%rax, -32(%rbp)
	movq	%rcx, -24(%rbp)
	movq	-32(%rbp), %rax
	movq	-24(%rbp), %rdx
	addq	$32, %rsp
	popq	%rbp
	retq
	.cfi_endproc

	.p2align	4, 0x90
__ZN4core3ptr24slice_from_raw_parts_mut17hd30c96a73157882eE:
	.cfi_startproc
	pushq	%rbp
	.cfi_def_cfa_offset 16
	.cfi_offset %rbp, -16
	movq	%rsp, %rbp
	.cfi_def_cfa_register %rbp
	subq	$32, %rsp
	movq	%rdi, -16(%rbp)
	movq	%rsi, -8(%rbp)
	movq	-16(%rbp), %rax
	movq	-8(%rbp), %rcx
	movq	%rax, -32(%rbp)
	movq	%rcx, -24(%rbp)
	movq	-32(%rbp), %rax
	movq	-24(%rbp), %rdx
	addq	$32, %rsp
	popq	%rbp
	retq
	.cfi_endproc

	.p2align	4, 0x90
__ZN4core3ptr6unique15Unique$LT$T$GT$13new_unchecked17h4a5acbf6c7eef84eE:
	.cfi_startproc
	pushq	%rbp
	.cfi_def_cfa_offset 16
	.cfi_offset %rbp, -16
	movq	%rsp, %rbp
	.cfi_def_cfa_register %rbp
	subq	$16, %rsp
	movq	%rdi, -16(%rbp)
	movq	-16(%rbp), %rax
	addq	$16, %rsp
	popq	%rbp
	retq
	.cfi_endproc

	.p2align	4, 0x90
__ZN4core3ptr6unique15Unique$LT$T$GT$6as_ptr17hb18ea22e413ff408E:
	.cfi_startproc
	pushq	%rbp
	.cfi_def_cfa_offset 16
	.cfi_offset %rbp, -16
	movq	%rsp, %rbp
	.cfi_def_cfa_register %rbp
	movq	%rdi, %rax
	popq	%rbp
	retq
	.cfi_endproc

	.p2align	4, 0x90
__ZN4core3ptr7mut_ptr31_$LT$impl$u20$$BP$mut$u20$T$GT$3add17h5205d6da8f4ee432E:
	.cfi_startproc
	pushq	%rbp
	.cfi_def_cfa_offset 16
	.cfi_offset %rbp, -16
	movq	%rsp, %rbp
	.cfi_def_cfa_register %rbp
	subq	$16, %rsp
	callq	__ZN4core3ptr7mut_ptr31_$LT$impl$u20$$BP$mut$u20$T$GT$6offset17h4bdcd03208d6bb68E
	movq	%rax, -8(%rbp)
	movq	-8(%rbp), %rax
	addq	$16, %rsp
	popq	%rbp
	retq
	.cfi_endproc

	.p2align	4, 0x90
__ZN4core3ptr7mut_ptr31_$LT$impl$u20$$BP$mut$u20$T$GT$6offset17h4bdcd03208d6bb68E:
	.cfi_startproc
	pushq	%rbp
	.cfi_def_cfa_offset 16
	.cfi_offset %rbp, -16
	movq	%rsp, %rbp
	.cfi_def_cfa_register %rbp
	subq	$16, %rsp
	addq	%rsi, %rdi
	movq	%rdi, -8(%rbp)
	movq	-8(%rbp), %rax
	movq	%rax, -16(%rbp)
	movq	-16(%rbp), %rax
	addq	$16, %rsp
	popq	%rbp
	retq
	.cfi_endproc

	.p2align	4, 0x90
__ZN4core3ptr7mut_ptr31_$LT$impl$u20$$BP$mut$u20$T$GT$7is_null17h299dc2b04a9863cfE:
	.cfi_startproc
	pushq	%rbp
	.cfi_def_cfa_offset 16
	.cfi_offset %rbp, -16
	movq	%rsp, %rbp
	.cfi_def_cfa_register %rbp
	pushq	%rax
	movq	%rdi, -8(%rbp)
	jmp	LBB46_1
LBB46_1:
	movq	-8(%rbp), %rax
	cmpq	$0, %rax
	sete	%cl
	andb	$1, %cl
	movzbl	%cl, %edx
	movl	%edx, %eax
	addq	$8, %rsp
	popq	%rbp
	retq
	.cfi_endproc

	.p2align	4, 0x90
__ZN4core3ptr8non_null16NonNull$LT$T$GT$13new_unchecked17hbb02ffbd1578b9ebE:
	.cfi_startproc
	pushq	%rbp
	.cfi_def_cfa_offset 16
	.cfi_offset %rbp, -16
	movq	%rsp, %rbp
	.cfi_def_cfa_register %rbp
	pushq	%rax
	movq	%rdi, -8(%rbp)
	movq	-8(%rbp), %rax
	addq	$8, %rsp
	popq	%rbp
	retq
	.cfi_endproc

	.p2align	4, 0x90
__ZN4core3ptr8non_null16NonNull$LT$T$GT$3new17heca9d8790c0ae458E:
	.cfi_startproc
	pushq	%rbp
	.cfi_def_cfa_offset 16
	.cfi_offset %rbp, -16
	movq	%rsp, %rbp
	.cfi_def_cfa_register %rbp
	subq	$32, %rsp
	movq	%rdi, -16(%rbp)
	callq	__ZN4core3ptr7mut_ptr31_$LT$impl$u20$$BP$mut$u20$T$GT$7is_null17h299dc2b04a9863cfE
	movb	%al, -17(%rbp)
	movb	-17(%rbp), %al
	xorb	$-1, %al
	testb	$1, %al
	jne	LBB48_3
	movq	$0, -8(%rbp)
	jmp	LBB48_5
LBB48_3:
	movq	-16(%rbp), %rdi
	callq	__ZN4core3ptr8non_null16NonNull$LT$T$GT$13new_unchecked17hbb02ffbd1578b9ebE
	movq	%rax, -32(%rbp)
	movq	-32(%rbp), %rax
	movq	%rax, -8(%rbp)
LBB48_5:
	movq	-8(%rbp), %rax
	addq	$32, %rsp
	popq	%rbp
	retq
	.cfi_endproc

	.p2align	4, 0x90
__ZN4core3ptr8non_null16NonNull$LT$T$GT$4cast17h6e34d3177c0a2566E:
	.cfi_startproc
	pushq	%rbp
	.cfi_def_cfa_offset 16
	.cfi_offset %rbp, -16
	movq	%rsp, %rbp
	.cfi_def_cfa_register %rbp
	subq	$16, %rsp
	callq	__ZN4core3ptr8non_null16NonNull$LT$T$GT$6as_ptr17h8642ce730d27c8c5E
	movq	%rax, -8(%rbp)
	movq	-8(%rbp), %rdi
	callq	__ZN4core3ptr8non_null16NonNull$LT$T$GT$13new_unchecked17hbb02ffbd1578b9ebE
	movq	%rax, -16(%rbp)
	movq	-16(%rbp), %rax
	addq	$16, %rsp
	popq	%rbp
	retq
	.cfi_endproc

	.p2align	4, 0x90
__ZN4core3ptr8non_null16NonNull$LT$T$GT$6as_ptr17h8642ce730d27c8c5E:
	.cfi_startproc
	pushq	%rbp
	.cfi_def_cfa_offset 16
	.cfi_offset %rbp, -16
	movq	%rsp, %rbp
	.cfi_def_cfa_register %rbp
	movq	%rdi, %rax
	popq	%rbp
	retq
	.cfi_endproc

	.p2align	4, 0x90
__ZN4core3ptr8non_null16NonNull$LT$T$GT$8dangling17h5e480ee47764e204E:
	.cfi_startproc
	pushq	%rbp
	.cfi_def_cfa_offset 16
	.cfi_offset %rbp, -16
	movq	%rsp, %rbp
	.cfi_def_cfa_register %rbp
	subq	$32, %rsp
	movq	$1, -8(%rbp)
	movq	-8(%rbp), %rdi
	movq	%rdi, -16(%rbp)
	movq	-16(%rbp), %rdi
	callq	__ZN4core3ptr8non_null16NonNull$LT$T$GT$13new_unchecked17hbb02ffbd1578b9ebE
	movq	%rax, -24(%rbp)
	movq	-24(%rbp), %rax
	addq	$32, %rsp
	popq	%rbp
	retq
	.cfi_endproc

	.p2align	4, 0x90
__ZN4core3ptr9const_ptr33_$LT$impl$u20$$BP$const$u20$T$GT$12wrapping_add17h9759f1af449b374cE:
	.cfi_startproc
	pushq	%rbp
	.cfi_def_cfa_offset 16
	.cfi_offset %rbp, -16
	movq	%rsp, %rbp
	.cfi_def_cfa_register %rbp
	subq	$16, %rsp
	callq	__ZN4core3ptr9const_ptr33_$LT$impl$u20$$BP$const$u20$T$GT$15wrapping_offset17h9bab2d76d38364b0E
	movq	%rax, -8(%rbp)
	movq	-8(%rbp), %rax
	addq	$16, %rsp
	popq	%rbp
	retq
	.cfi_endproc

	.p2align	4, 0x90
__ZN4core3ptr9const_ptr33_$LT$impl$u20$$BP$const$u20$T$GT$15wrapping_offset17h9bab2d76d38364b0E:
	.cfi_startproc
	pushq	%rbp
	.cfi_def_cfa_offset 16
	.cfi_offset %rbp, -16
	movq	%rsp, %rbp
	.cfi_def_cfa_register %rbp
	subq	$16, %rsp
	addq	%rsi, %rdi
	movq	%rdi, -8(%rbp)
	movq	-8(%rbp), %rax
	movq	%rax, -16(%rbp)
	movq	-16(%rbp), %rax
	addq	$16, %rsp
	popq	%rbp
	retq
	.cfi_endproc

	.p2align	4, 0x90
__ZN4core3ptr9const_ptr33_$LT$impl$u20$$BP$const$u20$T$GT$3add17he78509930cb42622E:
	.cfi_startproc
	pushq	%rbp
	.cfi_def_cfa_offset 16
	.cfi_offset %rbp, -16
	movq	%rsp, %rbp
	.cfi_def_cfa_register %rbp
	subq	$16, %rsp
	callq	__ZN4core3ptr9const_ptr33_$LT$impl$u20$$BP$const$u20$T$GT$6offset17h463a0c7746169390E
	movq	%rax, -8(%rbp)
	movq	-8(%rbp), %rax
	addq	$16, %rsp
	popq	%rbp
	retq
	.cfi_endproc

	.p2align	4, 0x90
__ZN4core3ptr9const_ptr33_$LT$impl$u20$$BP$const$u20$T$GT$6offset17h463a0c7746169390E:
	.cfi_startproc
	pushq	%rbp
	.cfi_def_cfa_offset 16
	.cfi_offset %rbp, -16
	movq	%rsp, %rbp
	.cfi_def_cfa_register %rbp
	subq	$16, %rsp
	addq	%rsi, %rdi
	movq	%rdi, -8(%rbp)
	movq	-8(%rbp), %rax
	movq	%rax, -16(%rbp)
	movq	-16(%rbp), %rax
	addq	$16, %rsp
	popq	%rbp
	retq
	.cfi_endproc

	.p2align	4, 0x90
__ZN4core3ptr9const_ptr33_$LT$impl$u20$$BP$const$u20$T$GT$7is_null17h2aae55954832416aE:
	.cfi_startproc
	pushq	%rbp
	.cfi_def_cfa_offset 16
	.cfi_offset %rbp, -16
	movq	%rsp, %rbp
	.cfi_def_cfa_register %rbp
	pushq	%rax
	movq	%rdi, -8(%rbp)
	jmp	LBB56_1
LBB56_1:
	movq	-8(%rbp), %rax
	cmpq	$0, %rax
	sete	%cl
	andb	$1, %cl
	movzbl	%cl, %edx
	movl	%edx, %eax
	addq	$8, %rsp
	popq	%rbp
	retq
	.cfi_endproc

	.p2align	4, 0x90
__ZN4core3str19from_utf8_unchecked17h56a15640e54eacffE:
	.cfi_startproc
	pushq	%rbp
	.cfi_def_cfa_offset 16
	.cfi_offset %rbp, -16
	movq	%rsp, %rbp
	.cfi_def_cfa_register %rbp
	movq	%rdi, %rax
	movq	%rsi, %rdx
	popq	%rbp
	retq
	.cfi_endproc

	.p2align	4, 0x90
__ZN4core5alloc10size_align17he986f6dba12dba04E:
	.cfi_startproc
	pushq	%rbp
	.cfi_def_cfa_offset 16
	.cfi_offset %rbp, -16
	movq	%rsp, %rbp
	.cfi_def_cfa_register %rbp
	subq	$48, %rsp
	movq	$1, -16(%rbp)
	movq	-16(%rbp), %rax
	movq	%rax, -40(%rbp)
	movq	$1, -8(%rbp)
	movq	-8(%rbp), %rax
	movq	%rax, -48(%rbp)
	movq	-40(%rbp), %rax
	movq	%rax, -32(%rbp)
	movq	-48(%rbp), %rcx
	movq	%rcx, -24(%rbp)
	movq	-32(%rbp), %rax
	movq	-24(%rbp), %rdx
	addq	$48, %rsp
	popq	%rbp
	retq
	.cfi_endproc

	.p2align	4, 0x90
__ZN4core5alloc6Layout15from_size_align17hb5cd0fcd215ebe4bE:
	.cfi_startproc
	pushq	%rbp
	.cfi_def_cfa_offset 16
	.cfi_offset %rbp, -16
	movq	%rsp, %rbp
	.cfi_def_cfa_register %rbp
	subq	$64, %rsp
	movq	%rdi, -24(%rbp)
	movq	%rsi, %rdi
	movq	%rsi, -32(%rbp)
	callq	__ZN4core3num23_$LT$impl$u20$usize$GT$15is_power_of_two17h58c6aae39d435474E
	movb	%al, -33(%rbp)
	movb	-33(%rbp), %al
	xorb	$-1, %al
	testb	$1, %al
	jne	LBB59_3
	movq	-32(%rbp), %rax
	subq	$1, %rax
	movq	$-1, %rcx
	subq	%rax, %rcx
	movq	-24(%rbp), %rax
	cmpq	%rcx, %rax
	ja	LBB59_6
	jmp	LBB59_5
LBB59_3:
	movq	$0, -8(%rbp)
LBB59_4:
	movq	-16(%rbp), %rax
	movq	-8(%rbp), %rdx
	addq	$64, %rsp
	popq	%rbp
	retq
LBB59_5:
	movq	-24(%rbp), %rdi
	movq	-32(%rbp), %rsi
	callq	__ZN4core5alloc6Layout25from_size_align_unchecked17h187a389e12de0d5cE
	movq	%rax, -48(%rbp)
	movq	%rdx, -56(%rbp)
	jmp	LBB59_7
LBB59_6:
	movq	$0, -8(%rbp)
	jmp	LBB59_4
LBB59_7:
	movq	-48(%rbp), %rax
	movq	%rax, -16(%rbp)
	movq	-56(%rbp), %rcx
	movq	%rcx, -8(%rbp)
	jmp	LBB59_4
	.cfi_endproc

	.p2align	4, 0x90
__ZN4core5alloc6Layout18padding_needed_for17hfc5ab1534bdbc311E:
	.cfi_startproc
	pushq	%rbp
	.cfi_def_cfa_offset 16
	.cfi_offset %rbp, -16
	movq	%rsp, %rbp
	.cfi_def_cfa_register %rbp
	subq	$48, %rsp
	movq	%rsi, -8(%rbp)
	callq	__ZN4core5alloc6Layout4size17h7d0ff8c123f165acE
	movq	%rax, -16(%rbp)
	movq	-16(%rbp), %rdi
	movq	-8(%rbp), %rsi
	callq	__ZN4core3num23_$LT$impl$u20$usize$GT$12wrapping_add17hcade03dc7b7b7a8cE
	movq	%rax, -24(%rbp)
	movq	-24(%rbp), %rdi
	movl	$1, %esi
	callq	__ZN4core3num23_$LT$impl$u20$usize$GT$12wrapping_sub17h148cea78d433e7d9E
	movq	%rax, -32(%rbp)
	movq	-8(%rbp), %rdi
	movl	$1, %esi
	callq	__ZN4core3num23_$LT$impl$u20$usize$GT$12wrapping_sub17h148cea78d433e7d9E
	movq	%rax, -40(%rbp)
	movq	-40(%rbp), %rax
	xorq	$-1, %rax
	movq	-32(%rbp), %rcx
	andq	%rax, %rcx
	movq	%rcx, %rdi
	movq	-16(%rbp), %rsi
	callq	__ZN4core3num23_$LT$impl$u20$usize$GT$12wrapping_sub17h148cea78d433e7d9E
	movq	%rax, -48(%rbp)
	movq	-48(%rbp), %rax
	addq	$48, %rsp
	popq	%rbp
	retq
	.cfi_endproc

	.p2align	4, 0x90
__ZN4core5alloc6Layout25from_size_align_unchecked17h187a389e12de0d5cE:
	.cfi_startproc
	pushq	%rbp
	.cfi_def_cfa_offset 16
	.cfi_offset %rbp, -16
	movq	%rsp, %rbp
	.cfi_def_cfa_register %rbp
	subq	$32, %rsp
	movq	%rdi, -24(%rbp)
	movq	%rsi, %rdi
	callq	__ZN4core3num12NonZeroUsize13new_unchecked17h0c7dc608ceccc7eaE
	movq	%rax, -32(%rbp)
	movq	-24(%rbp), %rax
	movq	%rax, -16(%rbp)
	movq	-32(%rbp), %rcx
	movq	%rcx, -8(%rbp)
	movq	-16(%rbp), %rax
	movq	-8(%rbp), %rdx
	addq	$32, %rsp
	popq	%rbp
	retq
	.cfi_endproc

	.p2align	4, 0x90
__ZN4core5alloc6Layout3new17h319c6431332170d3E:
	.cfi_startproc
	pushq	%rbp
	.cfi_def_cfa_offset 16
	.cfi_offset %rbp, -16
	movq	%rsp, %rbp
	.cfi_def_cfa_register %rbp
	subq	$32, %rsp
	callq	__ZN4core5alloc10size_align17he986f6dba12dba04E
	movq	%rax, -8(%rbp)
	movq	%rdx, -16(%rbp)
	movq	-8(%rbp), %rdi
	movq	-16(%rbp), %rsi
	callq	__ZN4core5alloc6Layout25from_size_align_unchecked17h187a389e12de0d5cE
	movq	%rax, -24(%rbp)
	movq	%rdx, -32(%rbp)
	movq	-24(%rbp), %rax
	movq	-32(%rbp), %rdx
	addq	$32, %rsp
	popq	%rbp
	retq
	.cfi_endproc

	.p2align	4, 0x90
__ZN4core5alloc6Layout4size17h7d0ff8c123f165acE:
	.cfi_startproc
	pushq	%rbp
	.cfi_def_cfa_offset 16
	.cfi_offset %rbp, -16
	movq	%rsp, %rbp
	.cfi_def_cfa_register %rbp
	movq	(%rdi), %rax
	popq	%rbp
	retq
	.cfi_endproc

	.p2align	4, 0x90
__ZN4core5alloc6Layout5align17hdb7e32931676e116E:
	.cfi_startproc
	pushq	%rbp
	.cfi_def_cfa_offset 16
	.cfi_offset %rbp, -16
	movq	%rsp, %rbp
	.cfi_def_cfa_register %rbp
	subq	$16, %rsp
	movq	8(%rdi), %rdi
	callq	__ZN4core3num12NonZeroUsize3get17h28bf150232209f7eE
	movq	%rax, -8(%rbp)
	movq	-8(%rbp), %rax
	addq	$16, %rsp
	popq	%rbp
	retq
	.cfi_endproc

	.p2align	4, 0x90
__ZN4core5alloc6Layout5array17h7e347f24c1ebc376E:
	.cfi_startproc
	pushq	%rbp
	.cfi_def_cfa_offset 16
	.cfi_offset %rbp, -16
	movq	%rsp, %rbp
	.cfi_def_cfa_register %rbp
	subq	$80, %rsp
	movq	%rdi, -56(%rbp)
	callq	__ZN4core5alloc6Layout3new17h319c6431332170d3E
	movq	%rdx, -16(%rbp)
	movq	%rax, -24(%rbp)
	leaq	-48(%rbp), %rdi
	leaq	-24(%rbp), %rsi
	movq	-56(%rbp), %rdx
	callq	__ZN4core5alloc6Layout6repeat17h336f99278c10caf4E
	leaq	-48(%rbp), %rdi
	callq	__ZN4core6result19Result$LT$T$C$E$GT$3map17h026efd203a823200E
	movq	%rax, -64(%rbp)
	movq	%rdx, -72(%rbp)
	movq	-64(%rbp), %rax
	movq	-72(%rbp), %rdx
	addq	$80, %rsp
	popq	%rbp
	retq
	.cfi_endproc

	.p2align	4, 0x90
__ZN4core5alloc6Layout5array28_$u7b$$u7b$closure$u7d$$u7d$17hf1daa220d155056cE:
	.cfi_startproc
	pushq	%rbp
	.cfi_def_cfa_offset 16
	.cfi_offset %rbp, -16
	movq	%rsp, %rbp
	.cfi_def_cfa_register %rbp
	movq	(%rdi), %rax
	movq	8(%rdi), %rdx
	popq	%rbp
	retq
	.cfi_endproc

	.p2align	4, 0x90
__ZN4core5alloc6Layout6repeat17h336f99278c10caf4E:
	.cfi_startproc
	pushq	%rbp
	.cfi_def_cfa_offset 16
	.cfi_offset %rbp, -16
	movq	%rsp, %rbp
	.cfi_def_cfa_register %rbp
	subq	$224, %rsp
	movq	%rdi, %rax
	movq	%rdi, -64(%rbp)
	movq	%rsi, %rdi
	movq	%rdx, -72(%rbp)
	movq	%rsi, -80(%rbp)
	movq	%rax, -88(%rbp)
	callq	__ZN4core5alloc6Layout4size17h7d0ff8c123f165acE
	movq	%rax, -96(%rbp)
	movq	-80(%rbp), %rdi
	callq	__ZN4core5alloc6Layout5align17hdb7e32931676e116E
	movq	%rax, -104(%rbp)
	movq	-80(%rbp), %rdi
	movq	-104(%rbp), %rsi
	callq	__ZN4core5alloc6Layout18padding_needed_for17hfc5ab1534bdbc311E
	movq	%rax, -112(%rbp)
	movq	-96(%rbp), %rdi
	movq	-112(%rbp), %rsi
	callq	__ZN4core3num23_$LT$impl$u20$usize$GT$11checked_add17h098b2f8ef78fa922E
	movq	%rax, -120(%rbp)
	movq	%rdx, -128(%rbp)
	movq	-120(%rbp), %rdi
	movq	-128(%rbp), %rsi
	callq	__ZN4core6option15Option$LT$T$GT$5ok_or17h235914d376af25b6E
	movq	%rax, -136(%rbp)
	movq	%rdx, -144(%rbp)
	movq	-136(%rbp), %rdi
	movq	-144(%rbp), %rsi
	callq	__ZN73_$LT$core..result..Result$LT$T$C$E$GT$$u20$as$u20$core..ops..try..Try$GT$11into_result17h9173bafdad8be9bbE
	movq	%rdx, -48(%rbp)
	movq	%rax, -56(%rbp)
	movq	-56(%rbp), %rax
	testq	%rax, %rax
	je	LBB67_13
	jmp	LBB67_24
LBB67_24:
	jmp	LBB67_8
	ud2
LBB67_8:
	callq	__ZN50_$LT$T$u20$as$u20$core..convert..From$LT$T$GT$$GT$4from17h54060d1d925de3c7E
	jmp	LBB67_10
LBB67_9:
	movq	-88(%rbp), %rax
	addq	$224, %rsp
	popq	%rbp
	retq
LBB67_10:
	movq	-64(%rbp), %rdi
	callq	__ZN73_$LT$core..result..Result$LT$T$C$E$GT$$u20$as$u20$core..ops..try..Try$GT$10from_error17hf67b51c0ba3cb86aE
	jmp	LBB67_12
LBB67_12:
	jmp	LBB67_9
LBB67_13:
	movq	-48(%rbp), %rax
	movq	%rax, %rdi
	movq	-72(%rbp), %rsi
	movq	%rax, -152(%rbp)
	callq	__ZN4core3num23_$LT$impl$u20$usize$GT$11checked_mul17h69f30027036a266aE
	movq	%rax, -160(%rbp)
	movq	%rdx, -168(%rbp)
	movq	-160(%rbp), %rdi
	movq	-168(%rbp), %rsi
	callq	__ZN4core6option15Option$LT$T$GT$5ok_or17h235914d376af25b6E
	movq	%rax, -176(%rbp)
	movq	%rdx, -184(%rbp)
	movq	-176(%rbp), %rdi
	movq	-184(%rbp), %rsi
	callq	__ZN73_$LT$core..result..Result$LT$T$C$E$GT$$u20$as$u20$core..ops..try..Try$GT$11into_result17h9173bafdad8be9bbE
	movq	%rdx, -32(%rbp)
	movq	%rax, -40(%rbp)
	movq	-40(%rbp), %rax
	testq	%rax, %rax
	je	LBB67_21
	jmp	LBB67_25
LBB67_25:
	jmp	LBB67_18
	ud2
LBB67_18:
	callq	__ZN50_$LT$T$u20$as$u20$core..convert..From$LT$T$GT$$GT$4from17h54060d1d925de3c7E
	movq	-64(%rbp), %rdi
	callq	__ZN73_$LT$core..result..Result$LT$T$C$E$GT$$u20$as$u20$core..ops..try..Try$GT$10from_error17hf67b51c0ba3cb86aE
	jmp	LBB67_12
LBB67_21:
	movq	-32(%rbp), %rdi
	movq	-80(%rbp), %rax
	movq	%rdi, -192(%rbp)
	movq	%rax, %rdi
	callq	__ZN4core5alloc6Layout5align17hdb7e32931676e116E
	movq	%rax, -200(%rbp)
	movq	-192(%rbp), %rdi
	movq	-200(%rbp), %rsi
	callq	__ZN4core5alloc6Layout25from_size_align_unchecked17h187a389e12de0d5cE
	movq	%rax, -208(%rbp)
	movq	%rdx, -216(%rbp)
	movq	-208(%rbp), %rax
	movq	%rax, -24(%rbp)
	movq	-216(%rbp), %rcx
	movq	%rcx, -16(%rbp)
	movq	-152(%rbp), %rdx
	movq	%rdx, -8(%rbp)
	movq	-24(%rbp), %rsi
	movq	-64(%rbp), %rdi
	movq	%rsi, (%rdi)
	movq	-16(%rbp), %rsi
	movq	%rsi, 8(%rdi)
	movq	-8(%rbp), %rsi
	movq	%rsi, 16(%rdi)
	jmp	LBB67_9
	.cfi_endproc

	.p2align	4, 0x90
__ZN4core5slice13Iter$LT$T$GT$8as_slice17h9076d11e4e7d0271E:
	.cfi_startproc
	pushq	%rbp
	.cfi_def_cfa_offset 16
	.cfi_offset %rbp, -16
	movq	%rsp, %rbp
	.cfi_def_cfa_register %rbp
	subq	$96, %rsp
	movq	(%rdi), %rax
	movq	%rdi, -32(%rbp)
	movq	%rax, %rdi
	callq	__ZN4core3ptr8non_null16NonNull$LT$T$GT$6as_ptr17h8642ce730d27c8c5E
	movq	-32(%rbp), %rcx
	movq	(%rcx), %rdx
	movq	%rdx, %rdi
	movq	%rax, -40(%rbp)
	movq	%rdx, -48(%rbp)
	callq	__ZN4core3ptr8non_null16NonNull$LT$T$GT$6as_ptr17h8642ce730d27c8c5E
	movq	$1, -8(%rbp)
	movq	-8(%rbp), %rcx
	cmpq	$0, %rcx
	movq	%rcx, -56(%rbp)
	je	LBB68_2
	movq	-32(%rbp), %rax
	movq	8(%rax), %rcx
	movq	-48(%rbp), %rdi
	movq	%rcx, -64(%rbp)
	callq	__ZN4core3ptr8non_null16NonNull$LT$T$GT$6as_ptr17h8642ce730d27c8c5E
	movq	-64(%rbp), %rcx
	subq	%rax, %rcx
	movq	%rcx, -16(%rbp)
	movq	-16(%rbp), %rax
	xorl	%edx, %edx
	movq	-56(%rbp), %rcx
	divq	%rcx
	movq	%rax, -24(%rbp)
	jmp	LBB68_3
LBB68_2:
	movq	-32(%rbp), %rax
	movq	8(%rax), %rdi
	movq	-48(%rbp), %rcx
	movq	%rdi, -72(%rbp)
	movq	%rcx, %rdi
	callq	__ZN4core3ptr8non_null16NonNull$LT$T$GT$6as_ptr17h8642ce730d27c8c5E
	movq	-72(%rbp), %rdi
	movq	%rax, %rsi
	callq	__ZN4core3num23_$LT$impl$u20$usize$GT$12wrapping_sub17h148cea78d433e7d9E
	movq	%rax, -24(%rbp)
LBB68_3:
	movq	-24(%rbp), %rsi
	movq	-40(%rbp), %rdi
	callq	__ZN4core5slice14from_raw_parts17h9b501fd17756bc97E
	movq	%rax, -80(%rbp)
	movq	%rdx, -88(%rbp)
	movq	-80(%rbp), %rax
	movq	-88(%rbp), %rdx
	addq	$96, %rsp
	popq	%rbp
	retq
	.cfi_endproc

	.p2align	4, 0x90
__ZN4core5slice14from_raw_parts17h9b501fd17756bc97E:
	.cfi_startproc
	pushq	%rbp
	.cfi_def_cfa_offset 16
	.cfi_offset %rbp, -16
	movq	%rsp, %rbp
	.cfi_def_cfa_register %rbp
	subq	$16, %rsp
	callq	__ZN4core3ptr20slice_from_raw_parts17hc7efd517ed090197E
	movq	%rax, -8(%rbp)
	movq	%rdx, -16(%rbp)
	movq	-8(%rbp), %rax
	movq	-16(%rbp), %rdx
	addq	$16, %rsp
	popq	%rbp
	retq
	.cfi_endproc

	.p2align	4, 0x90
__ZN4core5slice18from_raw_parts_mut17h572b52d4ed8a9b76E:
	.cfi_startproc
	pushq	%rbp
	.cfi_def_cfa_offset 16
	.cfi_offset %rbp, -16
	movq	%rsp, %rbp
	.cfi_def_cfa_register %rbp
	subq	$16, %rsp
	callq	__ZN4core3ptr24slice_from_raw_parts_mut17hd30c96a73157882eE
	movq	%rax, -8(%rbp)
	movq	%rdx, -16(%rbp)
	movq	-8(%rbp), %rax
	movq	-16(%rbp), %rdx
	addq	$16, %rsp
	popq	%rbp
	retq
	.cfi_endproc

	.p2align	4, 0x90
__ZN4core5slice29_$LT$impl$u20$$u5b$T$u5d$$GT$10as_mut_ptr17h9b5a7e6d886de8c1E:
	.cfi_startproc
	pushq	%rbp
	.cfi_def_cfa_offset 16
	.cfi_offset %rbp, -16
	movq	%rsp, %rbp
	.cfi_def_cfa_register %rbp
	movq	%rdi, %rax
	popq	%rbp
	retq
	.cfi_endproc

	.p2align	4, 0x90
__ZN4core5slice29_$LT$impl$u20$$u5b$T$u5d$$GT$15copy_from_slice17h8ade77e9a9a11f47E:
	.cfi_startproc
	pushq	%rbp
	.cfi_def_cfa_offset 16
	.cfi_offset %rbp, -16
	movq	%rsp, %rbp
	.cfi_def_cfa_register %rbp
	subq	$384, %rsp
	movq	%rdi, -224(%rbp)
	movq	%rsi, -232(%rbp)
	movq	%rdx, -240(%rbp)
	movq	%rcx, -248(%rbp)
	callq	__ZN4core5slice29_$LT$impl$u20$$u5b$T$u5d$$GT$3len17hb98d375eb4d6b061E
	movq	%rax, -200(%rbp)
	movq	-240(%rbp), %rdi
	movq	-248(%rbp), %rsi
	callq	__ZN4core5slice29_$LT$impl$u20$$u5b$T$u5d$$GT$3len17hb98d375eb4d6b061E
	movq	%rax, -192(%rbp)
	leaq	-200(%rbp), %rax
	movq	%rax, -216(%rbp)
	leaq	-192(%rbp), %rax
	movq	%rax, -208(%rbp)
	movq	-216(%rbp), %rax
	movq	-208(%rbp), %rcx
	movq	(%rax), %rdx
	cmpq	(%rcx), %rdx
	sete	%sil
	xorb	$-1, %sil
	testb	$1, %sil
	movq	%rax, -256(%rbp)
	movq	%rcx, -264(%rbp)
	jne	LBB72_4
	movq	-240(%rbp), %rdi
	movq	-248(%rbp), %rsi
	callq	__ZN4core5slice29_$LT$impl$u20$$u5b$T$u5d$$GT$6as_ptr17h27d8945c2967ba58E
	movq	%rax, -272(%rbp)
	jmp	LBB72_11
LBB72_4:
	xorl	%eax, %eax
	movl	%eax, %r8d
	movq	l___unnamed_2(%rip), %rcx
	movq	-256(%rbp), %rdx
	movq	%rdx, -64(%rbp)
	movq	-264(%rbp), %rsi
	movq	%rsi, -56(%rbp)
	movq	l___unnamed_3(%rip), %rdi
	movq	l___unnamed_4(%rip), %r9
	leaq	-48(%rbp), %r10
	movq	%rdi, -280(%rbp)
	movq	%r10, %rdi
	movq	-280(%rbp), %rsi
	movl	$1, %edx
	movq	%rcx, -288(%rbp)
	movq	%r9, %rcx
	callq	__ZN4core3fmt9Arguments6new_v117h0b48b04e97b6ca25E
	leaq	-64(%rbp), %rax
	movq	%rax, -88(%rbp)
	leaq	-56(%rbp), %rax
	movq	%rax, -80(%rbp)
	leaq	-48(%rbp), %rax
	movq	%rax, -72(%rbp)
	movq	-88(%rbp), %rdi
	movq	-80(%rbp), %rax
	movq	-72(%rbp), %rcx
	leaq	__ZN42_$LT$$RF$T$u20$as$u20$core..fmt..Debug$GT$3fmt17h615a16866fd98d13E(%rip), %rsi
	movq	%rax, -296(%rbp)
	movq	%rcx, -304(%rbp)
	callq	__ZN4core3fmt10ArgumentV13new17hc2f42a2f21425d64E
	movq	%rax, -312(%rbp)
	movq	%rdx, -320(%rbp)
	movq	-296(%rbp), %rdi
	leaq	__ZN42_$LT$$RF$T$u20$as$u20$core..fmt..Debug$GT$3fmt17h615a16866fd98d13E(%rip), %rsi
	callq	__ZN4core3fmt10ArgumentV13new17hc2f42a2f21425d64E
	movq	%rax, -328(%rbp)
	movq	%rdx, -336(%rbp)
	movq	__ZN59_$LT$core..fmt..Arguments$u20$as$u20$core..fmt..Display$GT$3fmt17hfd73c0494c6ebac7E@GOTPCREL(%rip), %rsi
	movq	-304(%rbp), %rdi
	callq	__ZN4core3fmt10ArgumentV13new17h7baa577d8eb1cb4bE
	movq	%rax, -344(%rbp)
	movq	%rdx, -352(%rbp)
	movq	-312(%rbp), %rax
	movq	%rax, -136(%rbp)
	movq	-320(%rbp), %rcx
	movq	%rcx, -128(%rbp)
	movq	-328(%rbp), %rdx
	movq	%rdx, -120(%rbp)
	movq	-336(%rbp), %rsi
	movq	%rsi, -112(%rbp)
	movq	-344(%rbp), %rdi
	movq	%rdi, -104(%rbp)
	movq	-352(%rbp), %r8
	movq	%r8, -96(%rbp)
	leaq	-136(%rbp), %r9
	leaq	-184(%rbp), %rdi
	movq	-288(%rbp), %rsi
	movl	$3, %r10d
	movq	%r10, %rdx
	movq	%r9, %rcx
	movq	%r10, %r8
	callq	__ZN4core3fmt9Arguments6new_v117h0b48b04e97b6ca25E
	leaq	l___unnamed_5(%rip), %rax
	movq	%rax, %rdi
	callq	__ZN4core5panic8Location6caller17hb9dbf541686cfe17E
	movq	%rax, -360(%rbp)
	leaq	-184(%rbp), %rdi
	movq	-360(%rbp), %rsi
	callq	__ZN4core9panicking9panic_fmt17h272b9afd5b7b725aE
LBB72_11:
	movq	-224(%rbp), %rdi
	movq	-232(%rbp), %rsi
	callq	__ZN4core5slice29_$LT$impl$u20$$u5b$T$u5d$$GT$10as_mut_ptr17h9b5a7e6d886de8c1E
	movq	%rax, -368(%rbp)
	movq	-224(%rbp), %rdi
	movq	-232(%rbp), %rsi
	callq	__ZN4core5slice29_$LT$impl$u20$$u5b$T$u5d$$GT$3len17hb98d375eb4d6b061E
	movq	%rax, -376(%rbp)
	movq	-272(%rbp), %rdi
	movq	-368(%rbp), %rsi
	movq	-376(%rbp), %rdx
	callq	__ZN4core10intrinsics19copy_nonoverlapping17ha073635131768003E
	addq	$384, %rsp
	popq	%rbp
	retq
	.cfi_endproc

	.p2align	4, 0x90
__ZN4core5slice29_$LT$impl$u20$$u5b$T$u5d$$GT$17get_unchecked_mut17hf3a9c2b057421f94E:
	.cfi_startproc
	pushq	%rbp
	.cfi_def_cfa_offset 16
	.cfi_offset %rbp, -16
	movq	%rsp, %rbp
	.cfi_def_cfa_register %rbp
	subq	$32, %rsp
	movq	%rdi, -8(%rbp)
	movq	%rdx, %rdi
	movq	-8(%rbp), %rax
	movq	%rsi, -16(%rbp)
	movq	%rax, %rsi
	movq	-16(%rbp), %rdx
	callq	__ZN103_$LT$core..ops..range..RangeFrom$LT$usize$GT$$u20$as$u20$core..slice..SliceIndex$LT$$u5b$T$u5d$$GT$$GT$17get_unchecked_mut17h12a44fe33ad478a3E
	movq	%rax, -24(%rbp)
	movq	%rdx, -32(%rbp)
	movq	-24(%rbp), %rax
	movq	-32(%rbp), %rdx
	addq	$32, %rsp
	popq	%rbp
	retq
	.cfi_endproc

	.p2align	4, 0x90
__ZN4core5slice29_$LT$impl$u20$$u5b$T$u5d$$GT$3len17hb98d375eb4d6b061E:
	.cfi_startproc
	pushq	%rbp
	.cfi_def_cfa_offset 16
	.cfi_offset %rbp, -16
	movq	%rsp, %rbp
	.cfi_def_cfa_register %rbp
	subq	$16, %rsp
	movq	%rdi, -16(%rbp)
	movq	%rsi, -8(%rbp)
	movq	-8(%rbp), %rax
	addq	$16, %rsp
	popq	%rbp
	retq
	.cfi_endproc

	.p2align	4, 0x90
__ZN4core5slice29_$LT$impl$u20$$u5b$T$u5d$$GT$4iter17hc71ba9e48cdea9a6E:
	.cfi_startproc
	pushq	%rbp
	.cfi_def_cfa_offset 16
	.cfi_offset %rbp, -16
	movq	%rsp, %rbp
	.cfi_def_cfa_register %rbp
	subq	$112, %rsp
	movq	%rdi, -48(%rbp)
	movq	%rsi, -56(%rbp)
	callq	__ZN4core5slice29_$LT$impl$u20$$u5b$T$u5d$$GT$6as_ptr17h27d8945c2967ba58E
	movq	%rax, -64(%rbp)
	movq	-64(%rbp), %rdi
	callq	__ZN4core3ptr9const_ptr33_$LT$impl$u20$$BP$const$u20$T$GT$7is_null17h2aae55954832416aE
	movq	$1, -8(%rbp)
	movq	-8(%rbp), %rax
	movq	%rax, -72(%rbp)
	movq	-72(%rbp), %rax
	cmpq	$0, %rax
	je	LBB75_6
	movq	-48(%rbp), %rdi
	movq	-56(%rbp), %rsi
	callq	__ZN4core5slice29_$LT$impl$u20$$u5b$T$u5d$$GT$3len17hb98d375eb4d6b061E
	movq	%rax, -80(%rbp)
	jmp	LBB75_9
LBB75_6:
	movq	-48(%rbp), %rdi
	movq	-56(%rbp), %rsi
	callq	__ZN4core5slice29_$LT$impl$u20$$u5b$T$u5d$$GT$3len17hb98d375eb4d6b061E
	movq	%rax, -88(%rbp)
	movq	-64(%rbp), %rdi
	movq	-88(%rbp), %rsi
	callq	__ZN4core3ptr9const_ptr33_$LT$impl$u20$$BP$const$u20$T$GT$12wrapping_add17h9759f1af449b374cE
	movq	%rax, -96(%rbp)
	movq	-96(%rbp), %rax
	movq	%rax, -24(%rbp)
	jmp	LBB75_11
LBB75_9:
	movq	-64(%rbp), %rdi
	movq	-80(%rbp), %rsi
	callq	__ZN4core3ptr9const_ptr33_$LT$impl$u20$$BP$const$u20$T$GT$3add17he78509930cb42622E
	movq	%rax, -24(%rbp)
	jmp	LBB75_11
LBB75_11:
	movq	-64(%rbp), %rdi
	callq	__ZN4core3ptr8non_null16NonNull$LT$T$GT$13new_unchecked17hbb02ffbd1578b9ebE
	movq	%rax, -104(%rbp)
	movq	-24(%rbp), %rax
	movq	-104(%rbp), %rcx
	movq	%rcx, -40(%rbp)
	movq	%rax, -32(%rbp)
	movq	-40(%rbp), %rax
	movq	-32(%rbp), %rdx
	addq	$112, %rsp
	popq	%rbp
	retq
	.cfi_endproc

	.p2align	4, 0x90
__ZN4core5slice29_$LT$impl$u20$$u5b$T$u5d$$GT$6as_ptr17h27d8945c2967ba58E:
	.cfi_startproc
	pushq	%rbp
	.cfi_def_cfa_offset 16
	.cfi_offset %rbp, -16
	movq	%rsp, %rbp
	.cfi_def_cfa_register %rbp
	movq	%rdi, %rax
	popq	%rbp
	retq
	.cfi_endproc

	.p2align	4, 0x90
__ZN4core5slice77_$LT$impl$u20$core..ops..index..IndexMut$LT$I$GT$$u20$for$u20$$u5b$T$u5d$$GT$9index_mut17h61f90aae10e0964dE:
	.cfi_startproc
	pushq	%rbp
	.cfi_def_cfa_offset 16
	.cfi_offset %rbp, -16
	movq	%rsp, %rbp
	.cfi_def_cfa_register %rbp
	subq	$16, %rsp
	callq	__ZN90_$LT$core..ops..range..RangeFull$u20$as$u20$core..slice..SliceIndex$LT$$u5b$T$u5d$$GT$$GT$9index_mut17h6fa9bc9239b731d3E
	movq	%rax, -8(%rbp)
	movq	%rdx, -16(%rbp)
	movq	-8(%rbp), %rax
	movq	-16(%rbp), %rdx
	addq	$16, %rsp
	popq	%rbp
	retq
	.cfi_endproc

	.p2align	4, 0x90
__ZN4core6option15Option$LT$T$GT$14unwrap_or_else17hfb52ae14e4e301b3E:
Lfunc_begin3:
	.cfi_startproc
	.cfi_personality 155, _rust_eh_personality
	.cfi_lsda 16, Lexception3
	pushq	%rbp
	.cfi_def_cfa_offset 16
	.cfi_offset %rbp, -16
	movq	%rsp, %rbp
	.cfi_def_cfa_register %rbp
	subq	$64, %rsp
	movq	%rdi, -48(%rbp)
	movq	%rsi, -40(%rbp)
	movb	$0, -18(%rbp)
	movb	$0, -17(%rbp)
	movb	$1, -18(%rbp)
	movb	$1, -17(%rbp)
	movq	-48(%rbp), %rax
	testq	%rax, %rax
	je	LBB78_2
	jmp	LBB78_18
LBB78_18:
	jmp	LBB78_4
LBB78_1:
	movq	-16(%rbp), %rdi
	callq	__Unwind_Resume
	ud2
LBB78_2:
	movb	$0, -17(%rbp)
Ltmp9:
	callq	__ZN5alloc7raw_vec19RawVec$LT$T$C$A$GT$11allocate_in28_$u7b$$u7b$closure$u7d$$u7d$17ha8910fd0d574da5dE
Ltmp10:
	movq	%rax, -56(%rbp)
	jmp	LBB78_5
	ud2
LBB78_4:
	movb	$0, -18(%rbp)
	movq	-40(%rbp), %rax
	movq	%rax, -32(%rbp)
	jmp	LBB78_12
LBB78_5:
	movq	-56(%rbp), %rax
	movq	%rax, -32(%rbp)
	jmp	LBB78_12
LBB78_6:
	cmpq	$1, -48(%rbp)
	je	LBB78_14
	jmp	LBB78_16
LBB78_7:
	testb	$1, -18(%rbp)
	je	LBB78_1
	movb	$0, -18(%rbp)
	jmp	LBB78_1
LBB78_9:
	jmp	LBB78_1
LBB78_10:
	cmpq	$1, -48(%rbp)
	je	LBB78_7
	jmp	LBB78_9
LBB78_11:
	movb	$0, -17(%rbp)
	jmp	LBB78_6
LBB78_12:
	testb	$1, -17(%rbp)
	jne	LBB78_11
	jmp	LBB78_6
LBB78_13:
	movq	-32(%rbp), %rax
	addq	$64, %rsp
	popq	%rbp
	retq
LBB78_14:
	testb	$1, -18(%rbp)
	je	LBB78_13
	movb	$0, -18(%rbp)
	jmp	LBB78_13
LBB78_16:
	jmp	LBB78_13
LBB78_17:
Ltmp11:
	movq	%rax, -16(%rbp)
	movl	%edx, -8(%rbp)
	jmp	LBB78_10
Lfunc_end3:
	.cfi_endproc
	.section	__TEXT,__gcc_except_tab
	.p2align	2
GCC_except_table78:
Lexception3:
	.byte	255
	.byte	255
	.byte	1
	.uleb128 Lcst_end3-Lcst_begin3
Lcst_begin3:
	.uleb128 Lfunc_begin3-Lfunc_begin3
	.uleb128 Ltmp9-Lfunc_begin3
	.byte	0
	.byte	0
	.uleb128 Ltmp9-Lfunc_begin3
	.uleb128 Ltmp10-Ltmp9
	.uleb128 Ltmp11-Lfunc_begin3
	.byte	0
Lcst_end3:
	.p2align	2

	.section	__TEXT,__text,regular,pure_instructions
	.p2align	4, 0x90
__ZN4core6option15Option$LT$T$GT$5ok_or17h235914d376af25b6E:
	.cfi_startproc
	pushq	%rbp
	.cfi_def_cfa_offset 16
	.cfi_offset %rbp, -16
	movq	%rsp, %rbp
	.cfi_def_cfa_register %rbp
	subq	$56, %rsp
	movq	%rdi, -56(%rbp)
	movq	%rsi, -48(%rbp)
	movb	$0, -18(%rbp)
	movb	$0, -17(%rbp)
	movb	$1, -18(%rbp)
	movb	$1, -17(%rbp)
	movq	-56(%rbp), %rax
	testq	%rax, %rax
	je	LBB79_1
	jmp	LBB79_11
LBB79_11:
	jmp	LBB79_3
LBB79_1:
	movb	$0, -17(%rbp)
	movq	$1, -40(%rbp)
	jmp	LBB79_4
	ud2
LBB79_3:
	movb	$0, -18(%rbp)
	movq	-48(%rbp), %rax
	movq	%rax, -32(%rbp)
	movq	$0, -40(%rbp)
LBB79_4:
	testb	$1, -17(%rbp)
	jne	LBB79_6
LBB79_5:
	cmpq	$1, -56(%rbp)
	je	LBB79_8
	jmp	LBB79_10
LBB79_6:
	movb	$0, -17(%rbp)
	jmp	LBB79_5
LBB79_7:
	movq	-40(%rbp), %rax
	movq	-32(%rbp), %rdx
	addq	$56, %rsp
	popq	%rbp
	retq
LBB79_8:
	testb	$1, -18(%rbp)
	je	LBB79_7
	movb	$0, -18(%rbp)
	jmp	LBB79_7
LBB79_10:
	jmp	LBB79_7
	.cfi_endproc

	.p2align	4, 0x90
__ZN4core6option15Option$LT$T$GT$5ok_or17hac755709995282eaE:
	.cfi_startproc
	pushq	%rbp
	.cfi_def_cfa_offset 16
	.cfi_offset %rbp, -16
	movq	%rsp, %rbp
	.cfi_def_cfa_register %rbp
	subq	$72, %rsp
	movq	%rdi, %rax
	movq	%rsi, -40(%rbp)
	movq	%rdx, -32(%rbp)
	movb	$0, -18(%rbp)
	movb	$0, -17(%rbp)
	movb	$1, -18(%rbp)
	movb	$1, -17(%rbp)
	movq	-40(%rbp), %rdx
	testq	%rdx, %rdx
	movq	%r8, -48(%rbp)
	movq	%rcx, -56(%rbp)
	movq	%rdi, -64(%rbp)
	movq	%rax, -72(%rbp)
	je	LBB80_1
	jmp	LBB80_11
LBB80_11:
	jmp	LBB80_3
LBB80_1:
	movb	$0, -17(%rbp)
	movq	-64(%rbp), %rax
	movq	-56(%rbp), %rcx
	movq	%rcx, 8(%rax)
	movq	-48(%rbp), %rdx
	movq	%rdx, 16(%rax)
	movq	$1, (%rax)
	jmp	LBB80_4
	ud2
LBB80_3:
	movb	$0, -18(%rbp)
	movq	-32(%rbp), %rax
	movq	-64(%rbp), %rcx
	movq	%rax, 8(%rcx)
	movq	$0, (%rcx)
LBB80_4:
	testb	$1, -17(%rbp)
	jne	LBB80_6
LBB80_5:
	cmpq	$1, -40(%rbp)
	je	LBB80_8
	jmp	LBB80_10
LBB80_6:
	movb	$0, -17(%rbp)
	jmp	LBB80_5
LBB80_7:
	movq	-72(%rbp), %rax
	addq	$72, %rsp
	popq	%rbp
	retq
LBB80_8:
	testb	$1, -18(%rbp)
	je	LBB80_7
	movb	$0, -18(%rbp)
	jmp	LBB80_7
LBB80_10:
	jmp	LBB80_7
	.cfi_endproc

	.p2align	4, 0x90
__ZN4core6option15Option$LT$T$GT$5ok_or17hcf3b06db2b60daddE:
	.cfi_startproc
	pushq	%rbp
	.cfi_def_cfa_offset 16
	.cfi_offset %rbp, -16
	movq	%rsp, %rbp
	.cfi_def_cfa_register %rbp
	subq	$40, %rsp
	movq	%rdi, -40(%rbp)
	movb	$0, -18(%rbp)
	movb	$0, -17(%rbp)
	movb	$1, -18(%rbp)
	movb	$1, -17(%rbp)
	movq	-40(%rbp), %rax
	testq	%rax, %rax
	setne	%cl
	movzbl	%cl, %edx
	movl	%edx, %eax
	je	LBB81_1
	jmp	LBB81_11
LBB81_11:
	jmp	LBB81_3
LBB81_1:
	movb	$0, -17(%rbp)
	movq	$0, -32(%rbp)
	jmp	LBB81_4
	ud2
LBB81_3:
	movb	$0, -18(%rbp)
	movq	-40(%rbp), %rax
	movq	%rax, -32(%rbp)
LBB81_4:
	testb	$1, -17(%rbp)
	jne	LBB81_6
LBB81_5:
	xorl	%eax, %eax
	movl	%eax, %ecx
	cmpq	$0, -40(%rbp)
	movl	$1, %edx
	cmovbeq	%rcx, %rdx
	cmpq	$1, %rdx
	je	LBB81_8
	jmp	LBB81_10
LBB81_6:
	movb	$0, -17(%rbp)
	jmp	LBB81_5
LBB81_7:
	movq	-32(%rbp), %rax
	addq	$40, %rsp
	popq	%rbp
	retq
LBB81_8:
	testb	$1, -18(%rbp)
	je	LBB81_7
	movb	$0, -18(%rbp)
	jmp	LBB81_7
LBB81_10:
	jmp	LBB81_7
	.cfi_endproc

	.p2align	4, 0x90
__ZN4core6result19Result$LT$T$C$E$GT$14unwrap_or_else17h4ea54e19de985a22E:
Lfunc_begin4:
	.cfi_startproc
	.cfi_personality 155, _rust_eh_personality
	.cfi_lsda 16, Lexception4
	pushq	%rbp
	.cfi_def_cfa_offset 16
	.cfi_offset %rbp, -16
	movq	%rsp, %rbp
	.cfi_def_cfa_register %rbp
	subq	$64, %rsp
	movb	$0, -19(%rbp)
	movb	$0, -18(%rbp)
	movb	$0, -17(%rbp)
	movb	$1, -19(%rbp)
	movb	$1, -18(%rbp)
	movb	$1, -17(%rbp)
	movq	(%rdi), %rax
	testq	%rax, %rax
	movq	%rdi, -56(%rbp)
	je	LBB82_3
	jmp	LBB82_20
LBB82_20:
	jmp	LBB82_5
LBB82_1:
	movq	-16(%rbp), %rdi
	callq	__Unwind_Resume
	ud2
	ud2
LBB82_3:
	movb	$0, -18(%rbp)
	jmp	LBB82_7
LBB82_4:
	movq	-56(%rbp), %rax
	cmpq	$0, (%rax)
	je	LBB82_9
	jmp	LBB82_11
LBB82_5:
	movb	$0, -19(%rbp)
	movq	-56(%rbp), %rax
	movq	8(%rax), %rcx
	movq	16(%rax), %rdx
	movb	$0, -17(%rbp)
	movq	%rcx, -40(%rbp)
	movq	%rdx, -32(%rbp)
	movq	-40(%rbp), %rdi
	movq	-32(%rbp), %rsi
Ltmp12:
	callq	__ZN5alloc7raw_vec19RawVec$LT$T$C$A$GT$11allocate_in28_$u7b$$u7b$closure$u7d$$u7d$17h0989845ee9d1ac3aE
Ltmp13:
	jmp	LBB82_6
LBB82_6:
	jmp	LBB82_7
LBB82_7:
	testb	$1, -17(%rbp)
	jne	LBB82_13
LBB82_8:
	movq	-56(%rbp), %rax
	cmpq	$0, (%rax)
	je	LBB82_15
	jmp	LBB82_17
LBB82_9:
	testb	$1, -18(%rbp)
	je	LBB82_1
	movb	$0, -18(%rbp)
	jmp	LBB82_1
LBB82_11:
	testb	$1, -19(%rbp)
	je	LBB82_1
	movb	$0, -19(%rbp)
	jmp	LBB82_1
LBB82_13:
	movb	$0, -17(%rbp)
	jmp	LBB82_8
LBB82_14:
	addq	$64, %rsp
	popq	%rbp
	retq
LBB82_15:
	testb	$1, -18(%rbp)
	je	LBB82_14
	movb	$0, -18(%rbp)
	jmp	LBB82_14
LBB82_17:
	testb	$1, -19(%rbp)
	je	LBB82_14
	movb	$0, -19(%rbp)
	jmp	LBB82_14
LBB82_19:
Ltmp14:
	movq	%rax, -16(%rbp)
	movl	%edx, -8(%rbp)
	jmp	LBB82_4
Lfunc_end4:
	.cfi_endproc
	.section	__TEXT,__gcc_except_tab
	.p2align	2
GCC_except_table82:
Lexception4:
	.byte	255
	.byte	255
	.byte	1
	.uleb128 Lcst_end4-Lcst_begin4
Lcst_begin4:
	.uleb128 Lfunc_begin4-Lfunc_begin4
	.uleb128 Ltmp12-Lfunc_begin4
	.byte	0
	.byte	0
	.uleb128 Ltmp12-Lfunc_begin4
	.uleb128 Ltmp13-Ltmp12
	.uleb128 Ltmp14-Lfunc_begin4
	.byte	0
Lcst_end4:
	.p2align	2

	.section	__TEXT,__text,regular,pure_instructions
	.p2align	4, 0x90
__ZN4core6result19Result$LT$T$C$E$GT$3map17h026efd203a823200E:
Lfunc_begin5:
	.cfi_startproc
	.cfi_personality 155, _rust_eh_personality
	.cfi_lsda 16, Lexception5
	pushq	%rbp
	.cfi_def_cfa_offset 16
	.cfi_offset %rbp, -16
	movq	%rsp, %rbp
	.cfi_def_cfa_register %rbp
	subq	$144, %rsp
	movb	$0, -18(%rbp)
	movb	$0, -19(%rbp)
	movb	$0, -17(%rbp)
	movb	$1, -19(%rbp)
	movb	$1, -18(%rbp)
	movb	$1, -17(%rbp)
	movq	8(%rdi), %rax
	testq	%rax, %rax
	sete	%cl
	movzbl	%cl, %edx
	movl	%edx, %eax
	movq	%rdi, -120(%rbp)
	jne	LBB83_3
	jmp	LBB83_20
LBB83_20:
	jmp	LBB83_5
LBB83_1:
	movq	-16(%rbp), %rdi
	callq	__Unwind_Resume
	ud2
	ud2
LBB83_3:
	movb	$0, -18(%rbp)
	movq	-120(%rbp), %rax
	movq	16(%rax), %rcx
	movq	%rcx, -80(%rbp)
	movq	(%rax), %rcx
	movq	8(%rax), %rdx
	movq	%rdx, -88(%rbp)
	movq	%rcx, -96(%rbp)
	movb	$0, -17(%rbp)
	movq	-80(%rbp), %rcx
	movq	%rcx, -32(%rbp)
	movq	-96(%rbp), %rcx
	movq	-88(%rbp), %rdx
	movq	%rdx, -40(%rbp)
	movq	%rcx, -48(%rbp)
	movq	-32(%rbp), %rcx
	movq	%rcx, -56(%rbp)
	movq	-48(%rbp), %rcx
	movq	-40(%rbp), %rdx
	movq	%rdx, -64(%rbp)
	movq	%rcx, -72(%rbp)
Ltmp15:
	leaq	-72(%rbp), %rdi
	callq	__ZN4core5alloc6Layout5array28_$u7b$$u7b$closure$u7d$$u7d$17hf1daa220d155056cE
Ltmp16:
	movq	%rdx, -128(%rbp)
	movq	%rax, -136(%rbp)
	jmp	LBB83_4
LBB83_4:
	movq	-136(%rbp), %rax
	movq	%rax, -112(%rbp)
	movq	-128(%rbp), %rax
	movq	%rax, -104(%rbp)
	jmp	LBB83_6
LBB83_5:
	movb	$0, -19(%rbp)
	movq	$0, -104(%rbp)
LBB83_6:
	testb	$1, -17(%rbp)
	jne	LBB83_13
LBB83_7:
	xorl	%eax, %eax
	movl	%eax, %ecx
	movq	-120(%rbp), %rdx
	cmpq	$0, 8(%rdx)
	movl	$1, %esi
	cmovbeq	%rsi, %rcx
	cmpq	$0, %rcx
	je	LBB83_15
	jmp	LBB83_17
LBB83_8:
	testb	$1, -18(%rbp)
	je	LBB83_1
	movb	$0, -18(%rbp)
	jmp	LBB83_1
LBB83_10:
	testb	$1, -19(%rbp)
	je	LBB83_1
	movb	$0, -19(%rbp)
	jmp	LBB83_1
LBB83_12:
	xorl	%eax, %eax
	movl	%eax, %ecx
	movq	-120(%rbp), %rdx
	cmpq	$0, 8(%rdx)
	movl	$1, %esi
	cmovbeq	%rsi, %rcx
	cmpq	$0, %rcx
	je	LBB83_8
	jmp	LBB83_10
LBB83_13:
	movb	$0, -17(%rbp)
	jmp	LBB83_7
LBB83_14:
	movq	-112(%rbp), %rax
	movq	-104(%rbp), %rdx
	addq	$144, %rsp
	popq	%rbp
	retq
LBB83_15:
	testb	$1, -18(%rbp)
	je	LBB83_14
	movb	$0, -18(%rbp)
	jmp	LBB83_14
LBB83_17:
	testb	$1, -19(%rbp)
	je	LBB83_14
	movb	$0, -19(%rbp)
	jmp	LBB83_14
LBB83_19:
Ltmp17:
	movq	%rax, -16(%rbp)
	movl	%edx, -8(%rbp)
	jmp	LBB83_12
Lfunc_end5:
	.cfi_endproc
	.section	__TEXT,__gcc_except_tab
	.p2align	2
GCC_except_table83:
Lexception5:
	.byte	255
	.byte	255
	.byte	1
	.uleb128 Lcst_end5-Lcst_begin5
Lcst_begin5:
	.uleb128 Lfunc_begin5-Lfunc_begin5
	.uleb128 Ltmp15-Lfunc_begin5
	.byte	0
	.byte	0
	.uleb128 Ltmp15-Lfunc_begin5
	.uleb128 Ltmp16-Ltmp15
	.uleb128 Ltmp17-Lfunc_begin5
	.byte	0
Lcst_end5:
	.p2align	2

	.section	__TEXT,__text,regular,pure_instructions
	.p2align	4, 0x90
__ZN4core6result19Result$LT$T$C$E$GT$6unwrap17h2c20865462c2f27aE:
Lfunc_begin6:
	.cfi_startproc
	.cfi_personality 155, _rust_eh_personality
	.cfi_lsda 16, Lexception6
	pushq	%rbp
	.cfi_def_cfa_offset 16
	.cfi_offset %rbp, -16
	movq	%rsp, %rbp
	.cfi_def_cfa_register %rbp
	subq	$64, %rsp
	movq	%rdi, -40(%rbp)
	movq	%rsi, -32(%rbp)
	movq	-32(%rbp), %rax
	testq	%rax, %rax
	sete	%cl
	movzbl	%cl, %r8d
	movl	%r8d, %eax
	movq	%rdx, -48(%rbp)
	jne	LBB84_3
	jmp	LBB84_12
LBB84_12:
	jmp	LBB84_5
LBB84_1:
	movq	-16(%rbp), %rdi
	callq	__Unwind_Resume
	ud2
	ud2
LBB84_3:
	xorl	%eax, %eax
	movl	%eax, %ecx
	movq	-40(%rbp), %rax
	movq	-32(%rbp), %rdx
	cmpq	$0, -32(%rbp)
	movl	$1, %esi
	cmovbeq	%rsi, %rcx
	cmpq	$0, %rcx
	movq	%rax, -56(%rbp)
	movq	%rdx, -64(%rbp)
	je	LBB84_8
	jmp	LBB84_9
LBB84_4:
	xorl	%eax, %eax
	movl	%eax, %ecx
	cmpq	$0, -32(%rbp)
	movl	$1, %edx
	cmovbeq	%rdx, %rcx
	cmpq	$0, %rcx
	je	LBB84_7
	jmp	LBB84_1
LBB84_5:
Ltmp18:
	leaq	l___unnamed_6(%rip), %rdi
	leaq	l___unnamed_7(%rip), %rcx
	movl	$43, %esi
	leaq	-24(%rbp), %rdx
	movq	-48(%rbp), %r8
	callq	__ZN4core6result13unwrap_failed17ha281d0df8eb41efaE
Ltmp19:
	jmp	LBB84_10
LBB84_6:
	jmp	LBB84_4
LBB84_7:
	jmp	LBB84_1
LBB84_8:
	movq	-56(%rbp), %rax
	movq	-64(%rbp), %rdx
	addq	$64, %rsp
	popq	%rbp
	retq
LBB84_9:
	jmp	LBB84_8
LBB84_10:
	ud2
LBB84_11:
Ltmp20:
	movq	%rax, -16(%rbp)
	movl	%edx, -8(%rbp)
	jmp	LBB84_6
Lfunc_end6:
	.cfi_endproc
	.section	__TEXT,__gcc_except_tab
	.p2align	2
GCC_except_table84:
Lexception6:
	.byte	255
	.byte	255
	.byte	1
	.uleb128 Lcst_end6-Lcst_begin6
Lcst_begin6:
	.uleb128 Lfunc_begin6-Lfunc_begin6
	.uleb128 Ltmp18-Lfunc_begin6
	.byte	0
	.byte	0
	.uleb128 Ltmp18-Lfunc_begin6
	.uleb128 Ltmp19-Ltmp18
	.uleb128 Ltmp20-Lfunc_begin6
	.byte	0
Lcst_end6:
	.p2align	2

	.section	__TEXT,__text,regular,pure_instructions
	.p2align	4, 0x90
__ZN4core6result19Result$LT$T$C$E$GT$7map_err17hfa15e552146e4c6dE:
Lfunc_begin7:
	.cfi_startproc
	.cfi_personality 155, _rust_eh_personality
	.cfi_lsda 16, Lexception7
	pushq	%rbp
	.cfi_def_cfa_offset 16
	.cfi_offset %rbp, -16
	movq	%rsp, %rbp
	.cfi_def_cfa_register %rbp
	subq	$80, %rsp
	movq	%rdi, %rax
	movq	%rsi, -40(%rbp)
	movq	%rdx, -32(%rbp)
	movb	$0, -18(%rbp)
	movb	$0, -19(%rbp)
	movb	$0, -17(%rbp)
	movb	$1, -19(%rbp)
	movb	$1, -18(%rbp)
	movb	$1, -17(%rbp)
	movq	-32(%rbp), %rcx
	testq	%rcx, %rcx
	sete	%r8b
	movzbl	%r8b, %r9d
	movl	%r9d, %ecx
	movq	%rdi, -48(%rbp)
	movq	%rax, -56(%rbp)
	jne	LBB85_3
	jmp	LBB85_20
LBB85_20:
	jmp	LBB85_5
LBB85_1:
	movq	-16(%rbp), %rdi
	callq	__Unwind_Resume
	ud2
	ud2
LBB85_3:
	movb	$0, -18(%rbp)
	movq	-40(%rbp), %rax
	movq	-32(%rbp), %rcx
	movq	-48(%rbp), %rdx
	movq	%rax, 8(%rdx)
	movq	%rcx, 16(%rdx)
	movq	$0, (%rdx)
	jmp	LBB85_7
LBB85_4:
	xorl	%eax, %eax
	movl	%eax, %ecx
	cmpq	$0, -32(%rbp)
	movl	$1, %edx
	cmovbeq	%rdx, %rcx
	cmpq	$0, %rcx
	je	LBB85_9
	jmp	LBB85_11
LBB85_5:
	movb	$0, -19(%rbp)
	movb	$0, -17(%rbp)
Ltmp21:
	callq	__ZN5alloc7raw_vec19RawVec$LT$T$C$A$GT$16reserve_internal28_$u7b$$u7b$closure$u7d$$u7d$17h5f2e7263d5a026d1E
Ltmp22:
	movq	%rdx, -64(%rbp)
	movq	%rax, -72(%rbp)
	jmp	LBB85_6
LBB85_6:
	movq	-48(%rbp), %rax
	movq	-72(%rbp), %rcx
	movq	%rcx, 8(%rax)
	movq	-64(%rbp), %rcx
	movq	%rcx, 16(%rax)
	movq	$1, (%rax)
LBB85_7:
	testb	$1, -17(%rbp)
	jne	LBB85_13
LBB85_8:
	xorl	%eax, %eax
	movl	%eax, %ecx
	cmpq	$0, -32(%rbp)
	movl	$1, %edx
	cmovbeq	%rdx, %rcx
	cmpq	$0, %rcx
	je	LBB85_15
	jmp	LBB85_17
LBB85_9:
	testb	$1, -18(%rbp)
	je	LBB85_1
	movb	$0, -18(%rbp)
	jmp	LBB85_1
LBB85_11:
	testb	$1, -19(%rbp)
	je	LBB85_1
	movb	$0, -19(%rbp)
	jmp	LBB85_1
LBB85_13:
	movb	$0, -17(%rbp)
	jmp	LBB85_8
LBB85_14:
	movq	-56(%rbp), %rax
	addq	$80, %rsp
	popq	%rbp
	retq
LBB85_15:
	testb	$1, -18(%rbp)
	je	LBB85_14
	movb	$0, -18(%rbp)
	jmp	LBB85_14
LBB85_17:
	testb	$1, -19(%rbp)
	je	LBB85_14
	movb	$0, -19(%rbp)
	jmp	LBB85_14
LBB85_19:
Ltmp23:
	movq	%rax, -16(%rbp)
	movl	%edx, -8(%rbp)
	jmp	LBB85_4
Lfunc_end7:
	.cfi_endproc
	.section	__TEXT,__gcc_except_tab
	.p2align	2
GCC_except_table85:
Lexception7:
	.byte	255
	.byte	255
	.byte	1
	.uleb128 Lcst_end7-Lcst_begin7
Lcst_begin7:
	.uleb128 Lfunc_begin7-Lfunc_begin7
	.uleb128 Ltmp21-Lfunc_begin7
	.byte	0
	.byte	0
	.uleb128 Ltmp21-Lfunc_begin7
	.uleb128 Ltmp22-Ltmp21
	.uleb128 Ltmp23-Lfunc_begin7
	.byte	0
Lcst_end7:
	.p2align	2

	.section	__TEXT,__text,regular,pure_instructions
	.p2align	4, 0x90
__ZN50_$LT$T$u20$as$u20$core..convert..From$LT$T$GT$$GT$4from17h54060d1d925de3c7E:
	.cfi_startproc
	pushq	%rbp
	.cfi_def_cfa_offset 16
	.cfi_offset %rbp, -16
	movq	%rsp, %rbp
	.cfi_def_cfa_register %rbp
	popq	%rbp
	retq
	.cfi_endproc

	.p2align	4, 0x90
__ZN50_$LT$T$u20$as$u20$core..convert..From$LT$T$GT$$GT$4from17h8f199680273f4735E:
	.cfi_startproc
	pushq	%rbp
	.cfi_def_cfa_offset 16
	.cfi_offset %rbp, -16
	movq	%rsp, %rbp
	.cfi_def_cfa_register %rbp
	movq	%rdi, %rax
	movq	%rsi, %rdx
	popq	%rbp
	retq
	.cfi_endproc

	.p2align	4, 0x90
__ZN50_$LT$T$u20$as$u20$core..convert..Into$LT$U$GT$$GT$4into17hf539e8b9eea5e92bE:
	.cfi_startproc
	pushq	%rbp
	.cfi_def_cfa_offset 16
	.cfi_offset %rbp, -16
	movq	%rsp, %rbp
	.cfi_def_cfa_register %rbp
	subq	$16, %rsp
	callq	__ZN119_$LT$core..ptr..unique..Unique$LT$T$GT$$u20$as$u20$core..convert..From$LT$core..ptr..non_null..NonNull$LT$T$GT$$GT$$GT$4from17h2eb347a32a4f7878E
	movq	%rax, -8(%rbp)
	movq	-8(%rbp), %rax
	addq	$16, %rsp
	popq	%rbp
	retq
	.cfi_endproc

	.p2align	4, 0x90
__ZN54_$LT$$LP$$RP$$u20$as$u20$std..process..Termination$GT$6report17h5f47869f7ef05b88E:
	.cfi_startproc
	pushq	%rbp
	.cfi_def_cfa_offset 16
	.cfi_offset %rbp, -16
	movq	%rsp, %rbp
	.cfi_def_cfa_register %rbp
	subq	$16, %rsp
	xorl	%edi, %edi
	callq	__ZN68_$LT$std..process..ExitCode$u20$as$u20$std..process..Termination$GT$6report17hd65ba66df7b359a7E
	movl	%eax, -4(%rbp)
	movl	-4(%rbp), %eax
	addq	$16, %rsp
	popq	%rbp
	retq
	.cfi_endproc

	.p2align	4, 0x90
__ZN58_$LT$alloc..string..String$u20$as$u20$core..fmt..Debug$GT$3fmt17hea8eda3bfefd5e1dE:
	.cfi_startproc
	pushq	%rbp
	.cfi_def_cfa_offset 16
	.cfi_offset %rbp, -16
	movq	%rsp, %rbp
	.cfi_def_cfa_register %rbp
	subq	$32, %rsp
	movq	%rsi, -8(%rbp)
	callq	__ZN65_$LT$alloc..string..String$u20$as$u20$core..ops..deref..Deref$GT$5deref17hed475a4d15501873E
	movq	%rax, -16(%rbp)
	movq	%rdx, -24(%rbp)
	movq	-16(%rbp), %rdi
	movq	-24(%rbp), %rsi
	movq	-8(%rbp), %rdx
	callq	__ZN40_$LT$str$u20$as$u20$core..fmt..Debug$GT$3fmt17ha13cce18c3e18cd3E
	movb	%al, -25(%rbp)
	movb	-25(%rbp), %al
	andb	$1, %al
	movzbl	%al, %eax
	addq	$32, %rsp
	popq	%rbp
	retq
	.cfi_endproc

	.p2align	4, 0x90
__ZN59_$LT$alloc..alloc..Global$u20$as$u20$core..alloc..Alloc$GT$12alloc_zeroed17h66df19cdec592559E:
	.cfi_startproc
	pushq	%rbp
	.cfi_def_cfa_offset 16
	.cfi_offset %rbp, -16
	movq	%rsp, %rbp
	.cfi_def_cfa_register %rbp
	subq	$32, %rsp
	movq	%rdi, -8(%rbp)
	movq	%rsi, %rdi
	movq	%rdx, %rsi
	callq	__ZN5alloc5alloc12alloc_zeroed17hf3bcf6a5bc23e78cE
	movq	%rax, -16(%rbp)
	movq	-16(%rbp), %rdi
	callq	__ZN4core3ptr8non_null16NonNull$LT$T$GT$3new17heca9d8790c0ae458E
	movq	%rax, -24(%rbp)
	movq	-24(%rbp), %rdi
	callq	__ZN4core6option15Option$LT$T$GT$5ok_or17hcf3b06db2b60daddE
	movq	%rax, -32(%rbp)
	movq	-32(%rbp), %rax
	addq	$32, %rsp
	popq	%rbp
	retq
	.cfi_endproc

	.p2align	4, 0x90
__ZN59_$LT$alloc..alloc..Global$u20$as$u20$core..alloc..Alloc$GT$5alloc17h8a16837daf0dfba6E:
	.cfi_startproc
	pushq	%rbp
	.cfi_def_cfa_offset 16
	.cfi_offset %rbp, -16
	movq	%rsp, %rbp
	.cfi_def_cfa_register %rbp
	subq	$32, %rsp
	movq	%rdi, -8(%rbp)
	movq	%rsi, %rdi
	movq	%rdx, %rsi
	callq	__ZN5alloc5alloc5alloc17he2af11973c81b530E
	movq	%rax, -16(%rbp)
	movq	-16(%rbp), %rdi
	callq	__ZN4core3ptr8non_null16NonNull$LT$T$GT$3new17heca9d8790c0ae458E
	movq	%rax, -24(%rbp)
	movq	-24(%rbp), %rdi
	callq	__ZN4core6option15Option$LT$T$GT$5ok_or17hcf3b06db2b60daddE
	movq	%rax, -32(%rbp)
	movq	-32(%rbp), %rax
	addq	$32, %rsp
	popq	%rbp
	retq
	.cfi_endproc

	.p2align	4, 0x90
__ZN59_$LT$alloc..alloc..Global$u20$as$u20$core..alloc..Alloc$GT$7dealloc17h30f68ac06488600eE:
	.cfi_startproc
	pushq	%rbp
	.cfi_def_cfa_offset 16
	.cfi_offset %rbp, -16
	movq	%rsp, %rbp
	.cfi_def_cfa_register %rbp
	subq	$32, %rsp
	movq	%rdi, -8(%rbp)
	movq	%rsi, %rdi
	movq	%rdx, -16(%rbp)
	movq	%rcx, -24(%rbp)
	callq	__ZN4core3ptr8non_null16NonNull$LT$T$GT$6as_ptr17h8642ce730d27c8c5E
	movq	%rax, -32(%rbp)
	movq	-32(%rbp), %rdi
	movq	-16(%rbp), %rsi
	movq	-24(%rbp), %rdx
	callq	__ZN5alloc5alloc7dealloc17h7af97950f02e6824E
	addq	$32, %rsp
	popq	%rbp
	retq
	.cfi_endproc

	.p2align	4, 0x90
__ZN59_$LT$alloc..alloc..Global$u20$as$u20$core..alloc..Alloc$GT$7realloc17h71c5349ed7b81a4dE:
	.cfi_startproc
	pushq	%rbp
	.cfi_def_cfa_offset 16
	.cfi_offset %rbp, -16
	movq	%rsp, %rbp
	.cfi_def_cfa_register %rbp
	subq	$64, %rsp
	movq	%rdi, -8(%rbp)
	movq	%rsi, %rdi
	movq	%rdx, -16(%rbp)
	movq	%rcx, -24(%rbp)
	movq	%r8, -32(%rbp)
	callq	__ZN4core3ptr8non_null16NonNull$LT$T$GT$6as_ptr17h8642ce730d27c8c5E
	movq	%rax, -40(%rbp)
	movq	-40(%rbp), %rdi
	movq	-16(%rbp), %rsi
	movq	-24(%rbp), %rdx
	movq	-32(%rbp), %rcx
	callq	__ZN5alloc5alloc7realloc17heee90de4df4f36e5E
	movq	%rax, -48(%rbp)
	movq	-48(%rbp), %rdi
	callq	__ZN4core3ptr8non_null16NonNull$LT$T$GT$3new17heca9d8790c0ae458E
	movq	%rax, -56(%rbp)
	movq	-56(%rbp), %rdi
	callq	__ZN4core6option15Option$LT$T$GT$5ok_or17hcf3b06db2b60daddE
	movq	%rax, -64(%rbp)
	movq	-64(%rbp), %rax
	addq	$64, %rsp
	popq	%rbp
	retq
	.cfi_endproc

	.p2align	4, 0x90
__ZN5alloc3str56_$LT$impl$u20$alloc..borrow..ToOwned$u20$for$u20$str$GT$8to_owned17h8beba0bdad99f319E:
	.cfi_startproc
	pushq	%rbp
	.cfi_def_cfa_offset 16
	.cfi_offset %rbp, -16
	movq	%rsp, %rbp
	.cfi_def_cfa_register %rbp
	subq	$80, %rsp
	movq	%rdi, %rax
	movq	%rsi, -16(%rbp)
	movq	%rdx, -8(%rbp)
	movq	-16(%rbp), %rsi
	movq	-8(%rbp), %rdx
	movq	%rdi, -48(%rbp)
	movq	%rax, -56(%rbp)
	movq	%rsi, -64(%rbp)
	movq	%rdx, -72(%rbp)
	leaq	-40(%rbp), %rdi
	movq	-64(%rbp), %rsi
	movq	-72(%rbp), %rdx
	callq	__ZN5alloc5slice64_$LT$impl$u20$alloc..borrow..ToOwned$u20$for$u20$$u5b$T$u5d$$GT$8to_owned17h95462d8864765f03E
	movq	-48(%rbp), %rdi
	leaq	-40(%rbp), %rsi
	callq	__ZN5alloc6string6String19from_utf8_unchecked17ha3ebc919357cbfaeE
	movq	-56(%rbp), %rax
	addq	$80, %rsp
	popq	%rbp
	retq
	.cfi_endproc

	.p2align	4, 0x90
__ZN5alloc3vec12Vec$LT$T$GT$10as_mut_ptr17had24f2def5af72e9E:
	.cfi_startproc
	pushq	%rbp
	.cfi_def_cfa_offset 16
	.cfi_offset %rbp, -16
	movq	%rsp, %rbp
	.cfi_def_cfa_register %rbp
	subq	$16, %rsp
	callq	__ZN5alloc7raw_vec19RawVec$LT$T$C$A$GT$3ptr17h133212a920707c9eE
	movq	%rax, -8(%rbp)
	movq	-8(%rbp), %rdi
	callq	__ZN4core3ptr7mut_ptr31_$LT$impl$u20$$BP$mut$u20$T$GT$7is_null17h299dc2b04a9863cfE
	movq	-8(%rbp), %rax
	addq	$16, %rsp
	popq	%rbp
	retq
	.cfi_endproc

	.p2align	4, 0x90
__ZN5alloc3vec12Vec$LT$T$GT$13with_capacity17he14924f8b12d3847E:
	.cfi_startproc
	pushq	%rbp
	.cfi_def_cfa_offset 16
	.cfi_offset %rbp, -16
	movq	%rsp, %rbp
	.cfi_def_cfa_register %rbp
	subq	$32, %rsp
	movq	%rdi, %rax
	movq	%rdi, -8(%rbp)
	movq	%rsi, %rdi
	movq	%rax, -16(%rbp)
	callq	__ZN5alloc7raw_vec15RawVec$LT$T$GT$13with_capacity17hbe1be18066eba444E
	movq	%rax, -24(%rbp)
	movq	%rdx, -32(%rbp)
	movq	-8(%rbp), %rax
	movq	-24(%rbp), %rcx
	movq	%rcx, (%rax)
	movq	-32(%rbp), %rdx
	movq	%rdx, 8(%rax)
	movq	$0, 16(%rax)
	movq	-16(%rbp), %rax
	addq	$32, %rsp
	popq	%rbp
	retq
	.cfi_endproc

	.p2align	4, 0x90
__ZN5alloc3vec12Vec$LT$T$GT$17extend_from_slice17h40bcb41baf70fc2bE:
	.cfi_startproc
	pushq	%rbp
	.cfi_def_cfa_offset 16
	.cfi_offset %rbp, -16
	movq	%rsp, %rbp
	.cfi_def_cfa_register %rbp
	subq	$32, %rsp
	movq	%rdi, -8(%rbp)
	movq	%rsi, %rdi
	movq	%rdx, %rsi
	callq	__ZN4core5slice29_$LT$impl$u20$$u5b$T$u5d$$GT$4iter17hc71ba9e48cdea9a6E
	movq	%rax, -16(%rbp)
	movq	%rdx, -24(%rbp)
	movq	-8(%rbp), %rdi
	movq	-16(%rbp), %rsi
	movq	-24(%rbp), %rdx
	callq	__ZN109_$LT$alloc..vec..Vec$LT$T$GT$$u20$as$u20$alloc..vec..SpecExtend$LT$$RF$T$C$core..slice..Iter$LT$T$GT$$GT$$GT$11spec_extend17h14bc3806359edb55E
	addq	$32, %rsp
	popq	%rbp
	retq
	.cfi_endproc

	.p2align	4, 0x90
__ZN5alloc3vec12Vec$LT$T$GT$3len17h3900a3b4dc66d91eE:
	.cfi_startproc
	pushq	%rbp
	.cfi_def_cfa_offset 16
	.cfi_offset %rbp, -16
	movq	%rsp, %rbp
	.cfi_def_cfa_register %rbp
	movq	16(%rdi), %rax
	popq	%rbp
	retq
	.cfi_endproc

	.p2align	4, 0x90
__ZN5alloc3vec12Vec$LT$T$GT$6as_ptr17h68d7f237bd5ef7d2E:
	.cfi_startproc
	pushq	%rbp
	.cfi_def_cfa_offset 16
	.cfi_offset %rbp, -16
	movq	%rsp, %rbp
	.cfi_def_cfa_register %rbp
	subq	$16, %rsp
	callq	__ZN5alloc7raw_vec19RawVec$LT$T$C$A$GT$3ptr17h133212a920707c9eE
	movq	%rax, -8(%rbp)
	movq	-8(%rbp), %rdi
	callq	__ZN4core3ptr7mut_ptr31_$LT$impl$u20$$BP$mut$u20$T$GT$7is_null17h299dc2b04a9863cfE
	movq	-8(%rbp), %rax
	addq	$16, %rsp
	popq	%rbp
	retq
	.cfi_endproc

	.p2align	4, 0x90
__ZN5alloc3vec12Vec$LT$T$GT$7reserve17h1f4029a707b333e0E:
	.cfi_startproc
	pushq	%rbp
	.cfi_def_cfa_offset 16
	.cfi_offset %rbp, -16
	movq	%rsp, %rbp
	.cfi_def_cfa_register %rbp
	subq	$16, %rsp
	movq	%rdi, %rax
	movq	16(%rdi), %rcx
	movq	%rax, %rdi
	movq	%rsi, -8(%rbp)
	movq	%rcx, %rsi
	movq	-8(%rbp), %rdx
	callq	__ZN5alloc7raw_vec19RawVec$LT$T$C$A$GT$7reserve17h2802ced112c95e5dE
	addq	$16, %rsp
	popq	%rbp
	retq
	.cfi_endproc

	.p2align	4, 0x90
__ZN5alloc3vec12Vec$LT$T$GT$7set_len17h08db4bb7ee0a68d9E:
	.cfi_startproc
	pushq	%rbp
	.cfi_def_cfa_offset 16
	.cfi_offset %rbp, -16
	movq	%rsp, %rbp
	.cfi_def_cfa_register %rbp
	movq	%rsi, 16(%rdi)
	popq	%rbp
	retq
	.cfi_endproc

	.p2align	4, 0x90
__ZN5alloc5alloc12alloc_zeroed17hf3bcf6a5bc23e78cE:
	.cfi_startproc
	pushq	%rbp
	.cfi_def_cfa_offset 16
	.cfi_offset %rbp, -16
	movq	%rsp, %rbp
	.cfi_def_cfa_register %rbp
	subq	$48, %rsp
	movq	%rdi, -16(%rbp)
	movq	%rsi, -8(%rbp)
	leaq	-16(%rbp), %rdi
	callq	__ZN4core5alloc6Layout4size17h7d0ff8c123f165acE
	movq	%rax, -24(%rbp)
	leaq	-16(%rbp), %rdi
	callq	__ZN4core5alloc6Layout5align17hdb7e32931676e116E
	movq	%rax, -32(%rbp)
	movq	-24(%rbp), %rdi
	movq	-32(%rbp), %rsi
	callq	___rust_alloc_zeroed
	movq	%rax, -40(%rbp)
	movq	-40(%rbp), %rax
	addq	$48, %rsp
	popq	%rbp
	retq
	.cfi_endproc

	.p2align	4, 0x90
__ZN5alloc5alloc5alloc17he2af11973c81b530E:
	.cfi_startproc
	pushq	%rbp
	.cfi_def_cfa_offset 16
	.cfi_offset %rbp, -16
	movq	%rsp, %rbp
	.cfi_def_cfa_register %rbp
	subq	$48, %rsp
	movq	%rdi, -16(%rbp)
	movq	%rsi, -8(%rbp)
	leaq	-16(%rbp), %rdi
	callq	__ZN4core5alloc6Layout4size17h7d0ff8c123f165acE
	movq	%rax, -24(%rbp)
	leaq	-16(%rbp), %rdi
	callq	__ZN4core5alloc6Layout5align17hdb7e32931676e116E
	movq	%rax, -32(%rbp)
	movq	-24(%rbp), %rdi
	movq	-32(%rbp), %rsi
	callq	___rust_alloc
	movq	%rax, -40(%rbp)
	movq	-40(%rbp), %rax
	addq	$48, %rsp
	popq	%rbp
	retq
	.cfi_endproc

	.p2align	4, 0x90
__ZN5alloc5alloc7dealloc17h7af97950f02e6824E:
	.cfi_startproc
	pushq	%rbp
	.cfi_def_cfa_offset 16
	.cfi_offset %rbp, -16
	movq	%rsp, %rbp
	.cfi_def_cfa_register %rbp
	subq	$48, %rsp
	movq	%rsi, -16(%rbp)
	movq	%rdx, -8(%rbp)
	leaq	-16(%rbp), %rax
	movq	%rdi, -24(%rbp)
	movq	%rax, %rdi
	callq	__ZN4core5alloc6Layout4size17h7d0ff8c123f165acE
	movq	%rax, -32(%rbp)
	leaq	-16(%rbp), %rdi
	callq	__ZN4core5alloc6Layout5align17hdb7e32931676e116E
	movq	%rax, -40(%rbp)
	movq	-24(%rbp), %rdi
	movq	-32(%rbp), %rsi
	movq	-40(%rbp), %rdx
	callq	___rust_dealloc
	addq	$48, %rsp
	popq	%rbp
	retq
	.cfi_endproc

	.p2align	4, 0x90
__ZN5alloc5alloc7realloc17heee90de4df4f36e5E:
	.cfi_startproc
	pushq	%rbp
	.cfi_def_cfa_offset 16
	.cfi_offset %rbp, -16
	movq	%rsp, %rbp
	.cfi_def_cfa_register %rbp
	subq	$64, %rsp
	movq	%rsi, -16(%rbp)
	movq	%rdx, -8(%rbp)
	leaq	-16(%rbp), %rax
	movq	%rdi, -24(%rbp)
	movq	%rax, %rdi
	movq	%rcx, -32(%rbp)
	callq	__ZN4core5alloc6Layout4size17h7d0ff8c123f165acE
	movq	%rax, -40(%rbp)
	leaq	-16(%rbp), %rdi
	callq	__ZN4core5alloc6Layout5align17hdb7e32931676e116E
	movq	%rax, -48(%rbp)
	movq	-24(%rbp), %rdi
	movq	-40(%rbp), %rsi
	movq	-48(%rbp), %rdx
	movq	-32(%rbp), %rcx
	callq	___rust_realloc
	movq	%rax, -56(%rbp)
	movq	-56(%rbp), %rax
	addq	$64, %rsp
	popq	%rbp
	retq
	.cfi_endproc

	.p2align	4, 0x90
__ZN5alloc5slice29_$LT$impl$u20$$u5b$T$u5d$$GT$6to_vec17h0d13ee5dde151cb7E:
	.cfi_startproc
	pushq	%rbp
	.cfi_def_cfa_offset 16
	.cfi_offset %rbp, -16
	movq	%rsp, %rbp
	.cfi_def_cfa_register %rbp
	subq	$16, %rsp
	movq	%rdi, %rax
	movq	%rax, -8(%rbp)
	callq	__ZN5alloc5slice4hack6to_vec17hff15f46ce07da62eE
	movq	-8(%rbp), %rax
	addq	$16, %rsp
	popq	%rbp
	retq
	.cfi_endproc

	.p2align	4, 0x90
__ZN5alloc5slice4hack6to_vec17hff15f46ce07da62eE:
Lfunc_begin8:
	.cfi_startproc
	.cfi_personality 155, _rust_eh_personality
	.cfi_lsda 16, Lexception8
	pushq	%rbp
	.cfi_def_cfa_offset 16
	.cfi_offset %rbp, -16
	movq	%rsp, %rbp
	.cfi_def_cfa_register %rbp
	subq	$80, %rsp
	movq	%rdi, %rax
	movq	%rdi, -48(%rbp)
	movq	%rsi, %rdi
	movq	%rsi, -56(%rbp)
	movq	%rdx, %rsi
	movq	%rdx, -64(%rbp)
	movq	%rax, -72(%rbp)
	callq	__ZN4core5slice29_$LT$impl$u20$$u5b$T$u5d$$GT$3len17hb98d375eb4d6b061E
	movq	%rax, -80(%rbp)
	jmp	LBB108_2
LBB108_1:
	movq	-16(%rbp), %rdi
	callq	__Unwind_Resume
	ud2
LBB108_2:
	leaq	-40(%rbp), %rdi
	movq	-80(%rbp), %rsi
	callq	__ZN5alloc3vec12Vec$LT$T$GT$13with_capacity17he14924f8b12d3847E
Ltmp24:
	leaq	-40(%rbp), %rdi
	movq	-56(%rbp), %rsi
	movq	-64(%rbp), %rdx
	callq	__ZN5alloc3vec12Vec$LT$T$GT$17extend_from_slice17h40bcb41baf70fc2bE
Ltmp25:
	jmp	LBB108_4
LBB108_4:
	movq	-40(%rbp), %rax
	movq	-48(%rbp), %rcx
	movq	%rax, (%rcx)
	movq	-32(%rbp), %rax
	movq	%rax, 8(%rcx)
	movq	-24(%rbp), %rax
	movq	%rax, 16(%rcx)
	movq	-72(%rbp), %rax
	addq	$80, %rsp
	popq	%rbp
	retq
LBB108_5:
	leaq	-40(%rbp), %rdi
	callq	__ZN4core3ptr13drop_in_place17h9b4cf4d478ec339dE
	jmp	LBB108_1
LBB108_6:
Ltmp26:
	movq	%rax, -16(%rbp)
	movl	%edx, -8(%rbp)
	jmp	LBB108_5
Lfunc_end8:
	.cfi_endproc
	.section	__TEXT,__gcc_except_tab
	.p2align	2
GCC_except_table108:
Lexception8:
	.byte	255
	.byte	255
	.byte	1
	.uleb128 Lcst_end8-Lcst_begin8
Lcst_begin8:
	.uleb128 Lfunc_begin8-Lfunc_begin8
	.uleb128 Ltmp24-Lfunc_begin8
	.byte	0
	.byte	0
	.uleb128 Ltmp24-Lfunc_begin8
	.uleb128 Ltmp25-Ltmp24
	.uleb128 Ltmp26-Lfunc_begin8
	.byte	0
	.uleb128 Ltmp25-Lfunc_begin8
	.uleb128 Lfunc_end8-Ltmp25
	.byte	0
	.byte	0
Lcst_end8:
	.p2align	2

	.section	__TEXT,__text,regular,pure_instructions
	.p2align	4, 0x90
__ZN5alloc5slice64_$LT$impl$u20$alloc..borrow..ToOwned$u20$for$u20$$u5b$T$u5d$$GT$8to_owned17h95462d8864765f03E:
	.cfi_startproc
	pushq	%rbp
	.cfi_def_cfa_offset 16
	.cfi_offset %rbp, -16
	movq	%rsp, %rbp
	.cfi_def_cfa_register %rbp
	subq	$16, %rsp
	movq	%rdi, %rax
	movq	%rax, -8(%rbp)
	callq	__ZN5alloc5slice29_$LT$impl$u20$$u5b$T$u5d$$GT$6to_vec17h0d13ee5dde151cb7E
	movq	-8(%rbp), %rax
	addq	$16, %rsp
	popq	%rbp
	retq
	.cfi_endproc

	.p2align	4, 0x90
__ZN5alloc6string6String19from_utf8_unchecked17ha3ebc919357cbfaeE:
	.cfi_startproc
	pushq	%rbp
	.cfi_def_cfa_offset 16
	.cfi_offset %rbp, -16
	movq	%rsp, %rbp
	.cfi_def_cfa_register %rbp
	subq	$24, %rsp
	movq	%rdi, %rax
	movq	(%rsi), %rcx
	movq	%rcx, -24(%rbp)
	movq	8(%rsi), %rcx
	movq	%rcx, -16(%rbp)
	movq	16(%rsi), %rcx
	movq	%rcx, -8(%rbp)
	movq	-24(%rbp), %rcx
	movq	%rcx, (%rdi)
	movq	-16(%rbp), %rcx
	movq	%rcx, 8(%rdi)
	movq	-8(%rbp), %rcx
	movq	%rcx, 16(%rdi)
	addq	$24, %rsp
	popq	%rbp
	retq
	.cfi_endproc

	.p2align	4, 0x90
__ZN5alloc7raw_vec11alloc_guard17hebc45c1589e81044E:
	.cfi_startproc
	pushq	%rbp
	.cfi_def_cfa_offset 16
	.cfi_offset %rbp, -16
	movq	%rsp, %rbp
	.cfi_def_cfa_register %rbp
	subq	$64, %rsp
	movq	%rdi, %rax
	movq	$8, -8(%rbp)
	movq	-8(%rbp), %rcx
	movq	%rsi, -40(%rbp)
	movq	%rdi, -48(%rbp)
	movq	%rax, -56(%rbp)
	movq	%rcx, -64(%rbp)
	jmp	LBB111_5
LBB111_1:
	movb	$1, -25(%rbp)
	jmp	LBB111_4
LBB111_2:
	movb	$0, -25(%rbp)
	jmp	LBB111_4
LBB111_3:
	movabsq	$9223372036854775807, %rax
	movq	-40(%rbp), %rcx
	cmpq	%rax, %rcx
	ja	LBB111_1
	jmp	LBB111_2
LBB111_4:
	testb	$1, -25(%rbp)
	jne	LBB111_7
	jmp	LBB111_6
LBB111_5:
	movq	-64(%rbp), %rax
	cmpq	$8, %rax
	jb	LBB111_3
	jmp	LBB111_2
LBB111_6:
	movq	-48(%rbp), %rax
	movq	$0, (%rax)
	jmp	LBB111_8
LBB111_7:
	movq	$0, -16(%rbp)
	movq	-24(%rbp), %rax
	movq	-16(%rbp), %rcx
	movq	-48(%rbp), %rdx
	movq	%rax, 8(%rdx)
	movq	%rcx, 16(%rdx)
	movq	$1, (%rdx)
LBB111_8:
	movq	-56(%rbp), %rax
	addq	$64, %rsp
	popq	%rbp
	retq
	.cfi_endproc

	.p2align	4, 0x90
__ZN5alloc7raw_vec15RawVec$LT$T$GT$13with_capacity17hbe1be18066eba444E:
	.cfi_startproc
	pushq	%rbp
	.cfi_def_cfa_offset 16
	.cfi_offset %rbp, -16
	movq	%rsp, %rbp
	.cfi_def_cfa_register %rbp
	subq	$16, %rsp
	xorl	%esi, %esi
	callq	__ZN5alloc7raw_vec19RawVec$LT$T$C$A$GT$11allocate_in17h5cbf077eeec28fcdE
	movq	%rax, -8(%rbp)
	movq	%rdx, -16(%rbp)
	movq	-8(%rbp), %rax
	movq	-16(%rbp), %rdx
	addq	$16, %rsp
	popq	%rbp
	retq
	.cfi_endproc

	.p2align	4, 0x90
__ZN5alloc7raw_vec19RawVec$LT$T$C$A$GT$11allocate_in17h5cbf077eeec28fcdE:
Lfunc_begin9:
	.cfi_startproc
	.cfi_personality 155, _rust_eh_personality
	.cfi_lsda 16, Lexception9
	pushq	%rbp
	.cfi_def_cfa_offset 16
	.cfi_offset %rbp, -16
	movq	%rsp, %rbp
	.cfi_def_cfa_register %rbp
	subq	$240, %rsp
	movq	$1, -16(%rbp)
	movq	-16(%rbp), %rax
	movq	%rdi, -120(%rbp)
	movb	%sil, -121(%rbp)
	movq	%rax, -136(%rbp)
	jmp	LBB113_2
LBB113_1:
	movq	-32(%rbp), %rdi
	callq	__Unwind_Resume
	ud2
LBB113_2:
Ltmp27:
	movq	-120(%rbp), %rdi
	movq	-136(%rbp), %rsi
	callq	__ZN4core3num23_$LT$impl$u20$usize$GT$11checked_mul17h69f30027036a266aE
Ltmp28:
	movq	%rdx, -144(%rbp)
	movq	%rax, -152(%rbp)
	jmp	LBB113_4
LBB113_3:
	jmp	LBB113_1
LBB113_4:
Ltmp29:
	movq	-152(%rbp), %rdi
	movq	-144(%rbp), %rsi
	callq	__ZN4core6option15Option$LT$T$GT$14unwrap_or_else17hfb52ae14e4e301b3E
Ltmp30:
	movq	%rax, -160(%rbp)
	jmp	LBB113_5
LBB113_5:
Ltmp31:
	leaq	-80(%rbp), %rdi
	movq	-160(%rbp), %rsi
	callq	__ZN5alloc7raw_vec11alloc_guard17hebc45c1589e81044E
Ltmp32:
	jmp	LBB113_6
LBB113_6:
Ltmp33:
	leaq	-80(%rbp), %rdi
	callq	__ZN4core6result19Result$LT$T$C$E$GT$14unwrap_or_else17h4ea54e19de985a22E
Ltmp34:
	jmp	LBB113_7
LBB113_7:
	movq	-160(%rbp), %rax
	cmpq	$0, %rax
	je	LBB113_9
	movq	$1, -8(%rbp)
	movq	-8(%rbp), %rsi
	movq	%rsi, -168(%rbp)
	jmp	LBB113_10
LBB113_9:
Ltmp47:
	callq	__ZN4core3ptr8non_null16NonNull$LT$T$GT$8dangling17h5e480ee47764e204E
Ltmp48:
	movq	%rax, -176(%rbp)
	jmp	LBB113_24
LBB113_10:
Ltmp35:
	movq	-160(%rbp), %rdi
	movq	-168(%rbp), %rsi
	callq	__ZN4core5alloc6Layout15from_size_align17hb5cd0fcd215ebe4bE
Ltmp36:
	movq	%rdx, -184(%rbp)
	movq	%rax, -192(%rbp)
	jmp	LBB113_11
LBB113_11:
Ltmp37:
	leaq	l___unnamed_8(%rip), %rdx
	movq	-192(%rbp), %rdi
	movq	-184(%rbp), %rsi
	callq	__ZN4core6result19Result$LT$T$C$E$GT$6unwrap17h2c20865462c2f27aE
Ltmp38:
	movq	%rdx, -200(%rbp)
	movq	%rax, -208(%rbp)
	jmp	LBB113_12
LBB113_12:
	movb	-121(%rbp), %al
	testb	$1, %al
	jne	LBB113_14
Ltmp39:
	leaq	-112(%rbp), %rdi
	movq	-208(%rbp), %rsi
	movq	-200(%rbp), %rdx
	callq	__ZN59_$LT$alloc..alloc..Global$u20$as$u20$core..alloc..Alloc$GT$5alloc17h8a16837daf0dfba6E
Ltmp40:
	movq	%rax, -216(%rbp)
	jmp	LBB113_16
LBB113_14:
Ltmp41:
	leaq	-112(%rbp), %rdi
	movq	-208(%rbp), %rsi
	movq	-200(%rbp), %rdx
	callq	__ZN59_$LT$alloc..alloc..Global$u20$as$u20$core..alloc..Alloc$GT$12alloc_zeroed17h66df19cdec592559E
Ltmp42:
	movq	%rax, -224(%rbp)
	jmp	LBB113_15
LBB113_15:
	movq	-224(%rbp), %rax
	movq	%rax, -40(%rbp)
	jmp	LBB113_17
LBB113_16:
	movq	-216(%rbp), %rax
	movq	%rax, -40(%rbp)
LBB113_17:
	movq	-40(%rbp), %rax
	testq	%rax, %rax
	sete	%cl
	movzbl	%cl, %edx
	movl	%edx, %eax
	jne	LBB113_20
	jmp	LBB113_27
LBB113_27:
Ltmp43:
	movq	-208(%rbp), %rdi
	movq	-200(%rbp), %rsi
	callq	__ZN5alloc5alloc18handle_alloc_error17hfed4d1ad18f03307E
Ltmp44:
	jmp	LBB113_26
	ud2
LBB113_20:
	movq	-40(%rbp), %rdi
Ltmp45:
	callq	__ZN4core3ptr8non_null16NonNull$LT$T$GT$4cast17h6e34d3177c0a2566E
Ltmp46:
	movq	%rax, -232(%rbp)
	jmp	LBB113_21
LBB113_21:
	movq	-232(%rbp), %rax
	movq	%rax, -48(%rbp)
LBB113_22:
	movq	-48(%rbp), %rdi
Ltmp49:
	callq	__ZN50_$LT$T$u20$as$u20$core..convert..Into$LT$U$GT$$GT$4into17hf539e8b9eea5e92bE
Ltmp50:
	movq	%rax, -240(%rbp)
	jmp	LBB113_23
LBB113_23:
	movq	-240(%rbp), %rax
	movq	%rax, -104(%rbp)
	movq	-120(%rbp), %rcx
	movq	%rcx, -96(%rbp)
	movq	-104(%rbp), %rax
	movq	-96(%rbp), %rdx
	addq	$240, %rsp
	popq	%rbp
	retq
LBB113_24:
	movq	-176(%rbp), %rax
	movq	%rax, -48(%rbp)
	jmp	LBB113_22
LBB113_25:
Ltmp51:
	movq	%rax, -32(%rbp)
	movl	%edx, -24(%rbp)
	jmp	LBB113_3
LBB113_26:
	ud2
Lfunc_end9:
	.cfi_endproc
	.section	__TEXT,__gcc_except_tab
	.p2align	2
GCC_except_table113:
Lexception9:
	.byte	255
	.byte	255
	.byte	1
	.uleb128 Lcst_end9-Lcst_begin9
Lcst_begin9:
	.uleb128 Lfunc_begin9-Lfunc_begin9
	.uleb128 Ltmp27-Lfunc_begin9
	.byte	0
	.byte	0
	.uleb128 Ltmp27-Lfunc_begin9
	.uleb128 Ltmp50-Ltmp27
	.uleb128 Ltmp51-Lfunc_begin9
	.byte	0
Lcst_end9:
	.p2align	2

	.section	__TEXT,__text,regular,pure_instructions
	.p2align	4, 0x90
__ZN5alloc7raw_vec19RawVec$LT$T$C$A$GT$11allocate_in28_$u7b$$u7b$closure$u7d$$u7d$17h0989845ee9d1ac3aE:
	.cfi_startproc
	pushq	%rbp
	.cfi_def_cfa_offset 16
	.cfi_offset %rbp, -16
	movq	%rsp, %rbp
	.cfi_def_cfa_register %rbp
	subq	$16, %rsp
	movq	%rdi, -8(%rbp)
	movq	%rsi, -16(%rbp)
	callq	__ZN5alloc7raw_vec17capacity_overflow17hbdb68e404d390ae8E
	.cfi_endproc

	.p2align	4, 0x90
__ZN5alloc7raw_vec19RawVec$LT$T$C$A$GT$11allocate_in28_$u7b$$u7b$closure$u7d$$u7d$17ha8910fd0d574da5dE:
	.cfi_startproc
	pushq	%rbp
	.cfi_def_cfa_offset 16
	.cfi_offset %rbp, -16
	movq	%rsp, %rbp
	.cfi_def_cfa_register %rbp
	callq	__ZN5alloc7raw_vec17capacity_overflow17hbdb68e404d390ae8E
	.cfi_endproc

	.p2align	4, 0x90
__ZN5alloc7raw_vec19RawVec$LT$T$C$A$GT$14current_layout17h58ea3ef1802629bfE:
	.cfi_startproc
	pushq	%rbp
	.cfi_def_cfa_offset 16
	.cfi_offset %rbp, -16
	movq	%rsp, %rbp
	.cfi_def_cfa_register %rbp
	subq	$80, %rsp
	cmpq	$0, 8(%rdi)
	movq	%rdi, -40(%rbp)
	je	LBB116_2
	movq	$1, -16(%rbp)
	movq	-16(%rbp), %rsi
	movq	%rsi, -48(%rbp)
	jmp	LBB116_3
LBB116_2:
	movq	$0, -24(%rbp)
	jmp	LBB116_6
LBB116_3:
	movq	$1, -8(%rbp)
	movq	-8(%rbp), %rax
	movq	%rax, -56(%rbp)
	movq	-56(%rbp), %rax
	movq	-40(%rbp), %rcx
	imulq	8(%rcx), %rax
	movq	%rax, %rdi
	movq	-48(%rbp), %rsi
	callq	__ZN4core5alloc6Layout25from_size_align_unchecked17h187a389e12de0d5cE
	movq	%rax, -64(%rbp)
	movq	%rdx, -72(%rbp)
	movq	-64(%rbp), %rax
	movq	%rax, -32(%rbp)
	movq	-72(%rbp), %rcx
	movq	%rcx, -24(%rbp)
LBB116_6:
	movq	-32(%rbp), %rax
	movq	-24(%rbp), %rdx
	addq	$80, %rsp
	popq	%rbp
	retq
	.cfi_endproc

	.p2align	4, 0x90
__ZN5alloc7raw_vec19RawVec$LT$T$C$A$GT$14dealloc_buffer17h0e820e23632e62d9E:
	.cfi_startproc
	pushq	%rbp
	.cfi_def_cfa_offset 16
	.cfi_offset %rbp, -16
	movq	%rsp, %rbp
	.cfi_def_cfa_register %rbp
	subq	$80, %rsp
	movq	$1, -8(%rbp)
	movq	-8(%rbp), %rax
	movq	%rdi, -32(%rbp)
	movq	%rax, -40(%rbp)
	movq	-40(%rbp), %rax
	cmpq	$0, %rax
	je	LBB117_9
	movq	-32(%rbp), %rdi
	callq	__ZN5alloc7raw_vec19RawVec$LT$T$C$A$GT$14current_layout17h58ea3ef1802629bfE
	movq	%rdx, -16(%rbp)
	movq	%rax, -24(%rbp)
	xorl	%eax, %eax
	movl	%eax, %ecx
	cmpq	$0, -16(%rbp)
	movl	$1, %edx
	cmovbeq	%rcx, %rdx
	cmpq	$1, %rdx
	jne	LBB117_8
	movq	-24(%rbp), %rdx
	movq	-16(%rbp), %rcx
	movq	-32(%rbp), %rax
	movq	-32(%rbp), %rsi
	movq	(%rsi), %rdi
	movq	%rdx, -48(%rbp)
	movq	%rcx, -56(%rbp)
	movq	%rax, -64(%rbp)
	callq	__ZN119_$LT$core..ptr..non_null..NonNull$LT$T$GT$$u20$as$u20$core..convert..From$LT$core..ptr..unique..Unique$LT$T$GT$$GT$$GT$4from17h437918df5fea7128E
	movq	%rax, -72(%rbp)
	movq	-72(%rbp), %rdi
	callq	__ZN4core3ptr8non_null16NonNull$LT$T$GT$4cast17h6e34d3177c0a2566E
	movq	%rax, -80(%rbp)
	movq	-64(%rbp), %rdi
	movq	-80(%rbp), %rsi
	movq	-48(%rbp), %rdx
	movq	-56(%rbp), %rcx
	callq	__ZN59_$LT$alloc..alloc..Global$u20$as$u20$core..alloc..Alloc$GT$7dealloc17h30f68ac06488600eE
	jmp	LBB117_8
LBB117_8:
	jmp	LBB117_9
LBB117_9:
	addq	$80, %rsp
	popq	%rbp
	retq
	.cfi_endproc

	.p2align	4, 0x90
__ZN5alloc7raw_vec19RawVec$LT$T$C$A$GT$16reserve_internal17ha293e312bcb633ebE:
	.cfi_startproc
	pushq	%rbp
	.cfi_def_cfa_offset 16
	.cfi_offset %rbp, -16
	movq	%rsp, %rbp
	.cfi_def_cfa_register %rbp
	subq	$560, %rsp
	movq	%rdi, %rax
	andb	$1, %r9b
	movb	%r9b, -313(%rbp)
	movq	$1, -8(%rbp)
	cmpq	$0, -8(%rbp)
	movq	%rcx, -328(%rbp)
	movq	%rdx, -336(%rbp)
	movq	%rsi, -344(%rbp)
	movq	%rdi, -352(%rbp)
	movb	%r8b, -353(%rbp)
	movq	%rax, -368(%rbp)
	je	LBB118_2
	movq	-344(%rbp), %rax
	movq	8(%rax), %rcx
	movq	%rcx, -16(%rbp)
	jmp	LBB118_3
LBB118_2:
	movq	$-1, -16(%rbp)
LBB118_3:
	movq	-16(%rbp), %rdi
	movq	%rdi, -376(%rbp)
	movq	-376(%rbp), %rdi
	movq	-336(%rbp), %rsi
	callq	__ZN4core3num23_$LT$impl$u20$usize$GT$12wrapping_sub17h148cea78d433e7d9E
	movq	%rax, -384(%rbp)
	movq	-384(%rbp), %rax
	movq	-328(%rbp), %rcx
	cmpq	%rcx, %rax
	jae	LBB118_7
	movzbl	-313(%rbp), %eax
	movl	%eax, %ecx
	testb	$1, %cl
	je	LBB118_11
	jmp	LBB118_64
LBB118_64:
	jmp	LBB118_9
LBB118_7:
	movq	-352(%rbp), %rax
	movq	$0, (%rax)
LBB118_8:
	movq	-368(%rbp), %rax
	addq	$560, %rsp
	popq	%rbp
	retq
LBB118_9:
	leaq	-216(%rbp), %rdi
	movq	-344(%rbp), %rsi
	movq	-336(%rbp), %rdx
	movq	-328(%rbp), %rcx
	callq	__ZN5alloc7raw_vec19RawVec$LT$T$C$A$GT$18amortized_new_size17hf78c9bcba425cab1E
	jmp	LBB118_21
	ud2
LBB118_11:
	movq	-336(%rbp), %rdi
	movq	-328(%rbp), %rsi
	callq	__ZN4core3num23_$LT$impl$u20$usize$GT$11checked_add17h098b2f8ef78fa922E
	movq	%rax, -392(%rbp)
	movq	%rdx, -400(%rbp)
	movq	$0, -248(%rbp)
	movq	-256(%rbp), %rcx
	movq	-248(%rbp), %r8
	leaq	-280(%rbp), %rdi
	movq	-392(%rbp), %rsi
	movq	-400(%rbp), %rdx
	callq	__ZN4core6option15Option$LT$T$GT$5ok_or17hac755709995282eaE
	leaq	-304(%rbp), %rdi
	leaq	-280(%rbp), %rsi
	callq	__ZN73_$LT$core..result..Result$LT$T$C$E$GT$$u20$as$u20$core..ops..try..Try$GT$11into_result17h02356ece29124a5bE
	movq	-304(%rbp), %rax
	testq	%rax, %rax
	je	LBB118_20
	jmp	LBB118_66
LBB118_66:
	jmp	LBB118_16
	ud2
LBB118_16:
	movq	-296(%rbp), %rdi
	movq	-288(%rbp), %rsi
	callq	__ZN50_$LT$T$u20$as$u20$core..convert..From$LT$T$GT$$GT$4from17h8f199680273f4735E
	movq	%rax, -408(%rbp)
	movq	%rdx, -416(%rbp)
	movq	-352(%rbp), %rdi
	movq	-408(%rbp), %rsi
	movq	-416(%rbp), %rdx
	callq	__ZN73_$LT$core..result..Result$LT$T$C$E$GT$$u20$as$u20$core..ops..try..Try$GT$10from_error17h6af062e33e4c532fE
	jmp	LBB118_19
LBB118_19:
	jmp	LBB118_8
LBB118_20:
	movq	-296(%rbp), %rax
	movq	%rax, -312(%rbp)
	jmp	LBB118_28
LBB118_21:
	leaq	-240(%rbp), %rdi
	leaq	-216(%rbp), %rsi
	callq	__ZN73_$LT$core..result..Result$LT$T$C$E$GT$$u20$as$u20$core..ops..try..Try$GT$11into_result17h02356ece29124a5bE
	movq	-240(%rbp), %rax
	testq	%rax, %rax
	je	LBB118_27
	jmp	LBB118_65
LBB118_65:
	jmp	LBB118_24
	ud2
LBB118_24:
	movq	-232(%rbp), %rdi
	movq	-224(%rbp), %rsi
	callq	__ZN50_$LT$T$u20$as$u20$core..convert..From$LT$T$GT$$GT$4from17h8f199680273f4735E
	movq	%rax, -424(%rbp)
	movq	%rdx, -432(%rbp)
	movq	-352(%rbp), %rdi
	movq	-424(%rbp), %rsi
	movq	-432(%rbp), %rdx
	callq	__ZN73_$LT$core..result..Result$LT$T$C$E$GT$$u20$as$u20$core..ops..try..Try$GT$10from_error17h6af062e33e4c532fE
	jmp	LBB118_19
LBB118_27:
	movq	-232(%rbp), %rax
	movq	%rax, -312(%rbp)
LBB118_28:
	movq	-312(%rbp), %rdi
	callq	__ZN4core5alloc6Layout5array17h7e347f24c1ebc376E
	movq	%rax, -440(%rbp)
	movq	%rdx, -448(%rbp)
	leaq	-152(%rbp), %rdi
	movq	-440(%rbp), %rsi
	movq	-448(%rbp), %rdx
	callq	__ZN4core6result19Result$LT$T$C$E$GT$7map_err17hfa15e552146e4c6dE
	leaq	-176(%rbp), %rdi
	leaq	-152(%rbp), %rsi
	callq	__ZN73_$LT$core..result..Result$LT$T$C$E$GT$$u20$as$u20$core..ops..try..Try$GT$11into_result17h105efa4739467fb1E
	movq	-176(%rbp), %rax
	testq	%rax, %rax
	je	LBB118_37
	jmp	LBB118_67
LBB118_67:
	jmp	LBB118_33
	ud2
LBB118_33:
	movq	-168(%rbp), %rdi
	movq	-160(%rbp), %rsi
	callq	__ZN50_$LT$T$u20$as$u20$core..convert..From$LT$T$GT$$GT$4from17h8f199680273f4735E
	movq	%rax, -456(%rbp)
	movq	%rdx, -464(%rbp)
	movq	-352(%rbp), %rdi
	movq	-456(%rbp), %rsi
	movq	-464(%rbp), %rdx
	callq	__ZN73_$LT$core..result..Result$LT$T$C$E$GT$$u20$as$u20$core..ops..try..Try$GT$10from_error17h6af062e33e4c532fE
	jmp	LBB118_36
LBB118_36:
	jmp	LBB118_19
LBB118_37:
	movq	-168(%rbp), %rax
	movq	-160(%rbp), %rcx
	movq	%rax, -192(%rbp)
	movq	%rcx, -184(%rbp)
	leaq	-192(%rbp), %rdi
	callq	__ZN4core5alloc6Layout4size17h7d0ff8c123f165acE
	movq	%rax, -472(%rbp)
	leaq	-96(%rbp), %rdi
	movq	-472(%rbp), %rsi
	callq	__ZN5alloc7raw_vec11alloc_guard17hebc45c1589e81044E
	leaq	-120(%rbp), %rdi
	leaq	-96(%rbp), %rsi
	callq	__ZN73_$LT$core..result..Result$LT$T$C$E$GT$$u20$as$u20$core..ops..try..Try$GT$11into_result17h0261165f9f169605E
	movq	-120(%rbp), %rax
	testq	%rax, %rax
	je	LBB118_45
	jmp	LBB118_68
LBB118_68:
	jmp	LBB118_42
	ud2
LBB118_42:
	movq	-112(%rbp), %rdi
	movq	-104(%rbp), %rsi
	callq	__ZN50_$LT$T$u20$as$u20$core..convert..From$LT$T$GT$$GT$4from17h8f199680273f4735E
	movq	%rax, -480(%rbp)
	movq	%rdx, -488(%rbp)
	movq	-352(%rbp), %rdi
	movq	-480(%rbp), %rsi
	movq	-488(%rbp), %rdx
	callq	__ZN73_$LT$core..result..Result$LT$T$C$E$GT$$u20$as$u20$core..ops..try..Try$GT$10from_error17h6af062e33e4c532fE
	jmp	LBB118_36
LBB118_45:
	movq	-344(%rbp), %rdi
	callq	__ZN5alloc7raw_vec19RawVec$LT$T$C$A$GT$14current_layout17h58ea3ef1802629bfE
	movq	%rdx, -56(%rbp)
	movq	%rax, -64(%rbp)
	movq	-56(%rbp), %rax
	testq	%rax, %rax
	setne	%cl
	movzbl	%cl, %edx
	movl	%edx, %eax
	je	LBB118_47
	jmp	LBB118_69
LBB118_69:
	jmp	LBB118_49
LBB118_47:
	movq	-344(%rbp), %rax
	movq	-192(%rbp), %rsi
	movq	-184(%rbp), %rdx
	movq	%rax, %rdi
	callq	__ZN59_$LT$alloc..alloc..Global$u20$as$u20$core..alloc..Alloc$GT$5alloc17h8a16837daf0dfba6E
	movq	%rax, -72(%rbp)
	jmp	LBB118_54
	ud2
LBB118_49:
	movq	-64(%rbp), %rdx
	movq	-56(%rbp), %rcx
	movq	-344(%rbp), %rax
	movq	-344(%rbp), %rsi
	movq	(%rsi), %rdi
	movq	%rdx, -496(%rbp)
	movq	%rcx, -504(%rbp)
	movq	%rax, -512(%rbp)
	callq	__ZN119_$LT$core..ptr..non_null..NonNull$LT$T$GT$$u20$as$u20$core..convert..From$LT$core..ptr..unique..Unique$LT$T$GT$$GT$$GT$4from17h437918df5fea7128E
	movq	%rax, -520(%rbp)
	movq	-520(%rbp), %rdi
	callq	__ZN4core3ptr8non_null16NonNull$LT$T$GT$4cast17h6e34d3177c0a2566E
	movq	%rax, -528(%rbp)
	leaq	-192(%rbp), %rdi
	callq	__ZN4core5alloc6Layout4size17h7d0ff8c123f165acE
	movq	%rax, -536(%rbp)
	movq	-512(%rbp), %rdi
	movq	-528(%rbp), %rsi
	movq	-496(%rbp), %rdx
	movq	-504(%rbp), %rcx
	movq	-536(%rbp), %r8
	callq	__ZN59_$LT$alloc..alloc..Global$u20$as$u20$core..alloc..Alloc$GT$7realloc17h71c5349ed7b81a4dE
	movq	%rax, -72(%rbp)
	jmp	LBB118_55
LBB118_54:
	jmp	LBB118_55
LBB118_55:
	movq	-72(%rbp), %rax
	movq	%rax, -48(%rbp)
	movb	-353(%rbp), %cl
	andb	$1, %cl
	movb	%cl, -40(%rbp)
	movq	-48(%rbp), %rax
	testq	%rax, %rax
	sete	%cl
	movzbl	%cl, %edx
	movl	%edx, %eax
	jne	LBB118_61
	jmp	LBB118_70
LBB118_70:
	jmp	LBB118_58
LBB118_56:
	movq	-192(%rbp), %rdi
	movq	-184(%rbp), %rsi
	callq	__ZN5alloc5alloc18handle_alloc_error17hfed4d1ad18f03307E
LBB118_57:
	movq	-192(%rbp), %rax
	movq	-184(%rbp), %rcx
	movq	%rax, -32(%rbp)
	movq	%rcx, -24(%rbp)
	movq	-32(%rbp), %rax
	movq	-24(%rbp), %rcx
	movq	-352(%rbp), %rdx
	movq	%rax, 8(%rdx)
	movq	%rcx, 16(%rdx)
	movq	$1, (%rdx)
	jmp	LBB118_36
LBB118_58:
	movzbl	-40(%rbp), %eax
	movl	%eax, %ecx
	testb	$1, %cl
	je	LBB118_57
	jmp	LBB118_71
LBB118_71:
	jmp	LBB118_56
	ud2
	ud2
LBB118_61:
	movq	-48(%rbp), %rdi
	callq	__ZN4core3ptr8non_null16NonNull$LT$T$GT$4cast17h6e34d3177c0a2566E
	movq	%rax, -544(%rbp)
	movq	-544(%rbp), %rdi
	callq	__ZN50_$LT$T$u20$as$u20$core..convert..Into$LT$U$GT$$GT$4into17hf539e8b9eea5e92bE
	movq	%rax, -552(%rbp)
	movq	-344(%rbp), %rax
	movq	-552(%rbp), %rcx
	movq	%rcx, (%rax)
	movq	-312(%rbp), %rdx
	movq	%rdx, 8(%rax)
	movq	-352(%rbp), %rdx
	movq	$0, (%rdx)
	jmp	LBB118_8
	.cfi_endproc

	.p2align	4, 0x90
__ZN5alloc7raw_vec19RawVec$LT$T$C$A$GT$16reserve_internal28_$u7b$$u7b$closure$u7d$$u7d$17h5f2e7263d5a026d1E:
	.cfi_startproc
	pushq	%rbp
	.cfi_def_cfa_offset 16
	.cfi_offset %rbp, -16
	movq	%rsp, %rbp
	.cfi_def_cfa_register %rbp
	subq	$16, %rsp
	movq	$0, -8(%rbp)
	movq	-16(%rbp), %rax
	movq	-8(%rbp), %rdx
	addq	$16, %rsp
	popq	%rbp
	retq
	.cfi_endproc

	.p2align	4, 0x90
__ZN5alloc7raw_vec19RawVec$LT$T$C$A$GT$18amortized_new_size17hf78c9bcba425cab1E:
	.cfi_startproc
	pushq	%rbp
	.cfi_def_cfa_offset 16
	.cfi_offset %rbp, -16
	movq	%rsp, %rbp
	.cfi_def_cfa_register %rbp
	subq	$128, %rsp
	movq	%rdi, %rax
	movq	%rdi, -72(%rbp)
	movq	%rdx, %rdi
	movq	%rsi, -80(%rbp)
	movq	%rcx, %rsi
	movq	%rax, -88(%rbp)
	callq	__ZN4core3num23_$LT$impl$u20$usize$GT$11checked_add17h098b2f8ef78fa922E
	movq	%rax, -96(%rbp)
	movq	%rdx, -104(%rbp)
	movq	$0, -8(%rbp)
	movq	-16(%rbp), %rcx
	movq	-8(%rbp), %r8
	leaq	-40(%rbp), %rdi
	movq	-96(%rbp), %rsi
	movq	-104(%rbp), %rdx
	callq	__ZN4core6option15Option$LT$T$GT$5ok_or17hac755709995282eaE
	leaq	-64(%rbp), %rdi
	leaq	-40(%rbp), %rsi
	callq	__ZN73_$LT$core..result..Result$LT$T$C$E$GT$$u20$as$u20$core..ops..try..Try$GT$11into_result17h02356ece29124a5bE
	movq	-64(%rbp), %rax
	testq	%rax, %rax
	je	LBB120_9
	jmp	LBB120_11
LBB120_11:
	jmp	LBB120_5
	ud2
LBB120_5:
	movq	-56(%rbp), %rdi
	movq	-48(%rbp), %rsi
	callq	__ZN50_$LT$T$u20$as$u20$core..convert..From$LT$T$GT$$GT$4from17h8f199680273f4735E
	movq	%rax, -112(%rbp)
	movq	%rdx, -120(%rbp)
	jmp	LBB120_7
LBB120_6:
	movq	-88(%rbp), %rax
	addq	$128, %rsp
	popq	%rbp
	retq
LBB120_7:
	movq	-72(%rbp), %rdi
	movq	-112(%rbp), %rsi
	movq	-120(%rbp), %rdx
	callq	__ZN73_$LT$core..result..Result$LT$T$C$E$GT$$u20$as$u20$core..ops..try..Try$GT$10from_error17hf3237ca531d39146E
	jmp	LBB120_6
LBB120_9:
	movq	-56(%rbp), %rsi
	movq	-80(%rbp), %rax
	movq	8(%rax), %rcx
	shlq	$1, %rcx
	movq	%rcx, %rdi
	callq	__ZN4core3cmp3max17h0a44bda2f3923f29E
	movq	%rax, -128(%rbp)
	movq	-72(%rbp), %rax
	movq	-128(%rbp), %rcx
	movq	%rcx, 8(%rax)
	movq	$0, (%rax)
	jmp	LBB120_6
	.cfi_endproc

	.p2align	4, 0x90
__ZN5alloc7raw_vec19RawVec$LT$T$C$A$GT$3ptr17h133212a920707c9eE:
	.cfi_startproc
	pushq	%rbp
	.cfi_def_cfa_offset 16
	.cfi_offset %rbp, -16
	movq	%rsp, %rbp
	.cfi_def_cfa_register %rbp
	subq	$16, %rsp
	movq	(%rdi), %rdi
	callq	__ZN4core3ptr6unique15Unique$LT$T$GT$6as_ptr17hb18ea22e413ff408E
	movq	%rax, -8(%rbp)
	movq	-8(%rbp), %rax
	addq	$16, %rsp
	popq	%rbp
	retq
	.cfi_endproc

	.p2align	4, 0x90
__ZN5alloc7raw_vec19RawVec$LT$T$C$A$GT$7reserve17h2802ced112c95e5dE:
	.cfi_startproc
	pushq	%rbp
	.cfi_def_cfa_offset 16
	.cfi_offset %rbp, -16
	movq	%rsp, %rbp
	.cfi_def_cfa_register %rbp
	subq	$64, %rsp
	movb	$1, -2(%rbp)
	movb	$1, -1(%rbp)
	movb	-2(%rbp), %al
	movb	-1(%rbp), %cl
	andb	$1, %al
	andb	$1, %cl
	leaq	-32(%rbp), %r8
	movq	%rdi, -40(%rbp)
	movq	%r8, %rdi
	movq	-40(%rbp), %r8
	movq	%rsi, -48(%rbp)
	movq	%r8, %rsi
	movq	-48(%rbp), %r9
	movq	%rdx, -56(%rbp)
	movq	%r9, %rdx
	movq	-56(%rbp), %r10
	movb	%cl, -57(%rbp)
	movq	%r10, %rcx
	movzbl	%al, %r11d
	movl	%r11d, %r8d
	movb	-57(%rbp), %al
	movzbl	%al, %r11d
	movl	%r11d, %r9d
	callq	__ZN5alloc7raw_vec19RawVec$LT$T$C$A$GT$16reserve_internal17ha293e312bcb633ebE
	movq	-32(%rbp), %rax
	testq	%rax, %rax
	je	LBB122_4
	jmp	LBB122_8
LBB122_8:
	jmp	LBB122_5
LBB122_2:
	callq	__ZN5alloc7raw_vec17capacity_overflow17hbdb68e404d390ae8E
LBB122_3:
	leaq	l___unnamed_9(%rip), %rdi
	leaq	l___unnamed_10(%rip), %rdx
	movl	$40, %esi
	callq	__ZN4core9panicking5panic17h8627f9662a331d41E
LBB122_4:
	addq	$64, %rsp
	popq	%rbp
	retq
LBB122_5:
	movq	-16(%rbp), %rax
	testq	%rax, %rax
	setne	%cl
	movzbl	%cl, %edx
	movl	%edx, %eax
	je	LBB122_2
	jmp	LBB122_9
LBB122_9:
	jmp	LBB122_3
	ud2
	ud2
	.cfi_endproc

	.p2align	4, 0x90
__ZN65_$LT$alloc..string..String$u20$as$u20$core..ops..deref..Deref$GT$5deref17hed475a4d15501873E:
	.cfi_startproc
	pushq	%rbp
	.cfi_def_cfa_offset 16
	.cfi_offset %rbp, -16
	movq	%rsp, %rbp
	.cfi_def_cfa_register %rbp
	subq	$32, %rsp
	callq	__ZN68_$LT$alloc..vec..Vec$LT$T$GT$$u20$as$u20$core..ops..deref..Deref$GT$5deref17h4ad47c823b84adb4E
	movq	%rax, -8(%rbp)
	movq	%rdx, -16(%rbp)
	movq	-8(%rbp), %rdi
	movq	-16(%rbp), %rsi
	callq	__ZN4core3str19from_utf8_unchecked17h56a15640e54eacffE
	movq	%rax, -24(%rbp)
	movq	%rdx, -32(%rbp)
	movq	-24(%rbp), %rax
	movq	-32(%rbp), %rdx
	addq	$32, %rsp
	popq	%rbp
	retq
	.cfi_endproc

	.p2align	4, 0x90
__ZN66_$LT$alloc..vec..Vec$LT$T$GT$$u20$as$u20$core..ops..drop..Drop$GT$4drop17he25a5cf9c8f9ffe9E:
	.cfi_startproc
	pushq	%rbp
	.cfi_def_cfa_offset 16
	.cfi_offset %rbp, -16
	movq	%rsp, %rbp
	.cfi_def_cfa_register %rbp
	callq	__ZN80_$LT$alloc..vec..Vec$LT$T$GT$$u20$as$u20$core..ops..index..IndexMut$LT$I$GT$$GT$9index_mut17h38792754a3b41ceeE
	jmp	LBB124_2
LBB124_2:
	popq	%rbp
	retq
	.cfi_endproc

	.p2align	4, 0x90
__ZN68_$LT$alloc..vec..Vec$LT$T$GT$$u20$as$u20$core..ops..deref..Deref$GT$5deref17h4ad47c823b84adb4E:
	.cfi_startproc
	pushq	%rbp
	.cfi_def_cfa_offset 16
	.cfi_offset %rbp, -16
	movq	%rsp, %rbp
	.cfi_def_cfa_register %rbp
	subq	$32, %rsp
	movq	%rdi, -8(%rbp)
	callq	__ZN5alloc3vec12Vec$LT$T$GT$6as_ptr17h68d7f237bd5ef7d2E
	movq	%rax, -16(%rbp)
	movq	-8(%rbp), %rax
	movq	16(%rax), %rsi
	movq	-16(%rbp), %rdi
	callq	__ZN4core5slice14from_raw_parts17h9b501fd17756bc97E
	movq	%rax, -24(%rbp)
	movq	%rdx, -32(%rbp)
	movq	-24(%rbp), %rax
	movq	-32(%rbp), %rdx
	addq	$32, %rsp
	popq	%rbp
	retq
	.cfi_endproc

	.p2align	4, 0x90
__ZN68_$LT$std..process..ExitCode$u20$as$u20$std..process..Termination$GT$6report17hd65ba66df7b359a7E:
	.cfi_startproc
	pushq	%rbp
	.cfi_def_cfa_offset 16
	.cfi_offset %rbp, -16
	movq	%rsp, %rbp
	.cfi_def_cfa_register %rbp
	subq	$16, %rsp
	movb	%dil, -1(%rbp)
	leaq	-1(%rbp), %rdi
	callq	__ZN3std3sys4unix7process14process_common8ExitCode6as_i3217hf8253168d92e9a4cE
	movl	%eax, -8(%rbp)
	movl	-8(%rbp), %eax
	addq	$16, %rsp
	popq	%rbp
	retq
	.cfi_endproc

	.p2align	4, 0x90
__ZN71_$LT$alloc..vec..Vec$LT$T$GT$$u20$as$u20$core..ops..deref..DerefMut$GT$9deref_mut17ha46a8e8a0c2d26e2E:
	.cfi_startproc
	pushq	%rbp
	.cfi_def_cfa_offset 16
	.cfi_offset %rbp, -16
	movq	%rsp, %rbp
	.cfi_def_cfa_register %rbp
	subq	$32, %rsp
	movq	%rdi, -8(%rbp)
	callq	__ZN5alloc3vec12Vec$LT$T$GT$10as_mut_ptr17had24f2def5af72e9E
	movq	%rax, -16(%rbp)
	movq	-8(%rbp), %rax
	movq	16(%rax), %rsi
	movq	-16(%rbp), %rdi
	callq	__ZN4core5slice18from_raw_parts_mut17h572b52d4ed8a9b76E
	movq	%rax, -24(%rbp)
	movq	%rdx, -32(%rbp)
	movq	-24(%rbp), %rax
	movq	-32(%rbp), %rdx
	addq	$32, %rsp
	popq	%rbp
	retq
	.cfi_endproc

	.p2align	4, 0x90
__ZN73_$LT$core..result..Result$LT$T$C$E$GT$$u20$as$u20$core..ops..try..Try$GT$10from_error17h6af062e33e4c532fE:
	.cfi_startproc
	pushq	%rbp
	.cfi_def_cfa_offset 16
	.cfi_offset %rbp, -16
	movq	%rsp, %rbp
	.cfi_def_cfa_register %rbp
	movq	%rdi, %rax
	movq	%rsi, 8(%rdi)
	movq	%rdx, 16(%rdi)
	movq	$1, (%rdi)
	popq	%rbp
	retq
	.cfi_endproc

	.p2align	4, 0x90
__ZN73_$LT$core..result..Result$LT$T$C$E$GT$$u20$as$u20$core..ops..try..Try$GT$10from_error17hf3237ca531d39146E:
	.cfi_startproc
	pushq	%rbp
	.cfi_def_cfa_offset 16
	.cfi_offset %rbp, -16
	movq	%rsp, %rbp
	.cfi_def_cfa_register %rbp
	movq	%rdi, %rax
	movq	%rsi, 8(%rdi)
	movq	%rdx, 16(%rdi)
	movq	$1, (%rdi)
	popq	%rbp
	retq
	.cfi_endproc

	.p2align	4, 0x90
__ZN73_$LT$core..result..Result$LT$T$C$E$GT$$u20$as$u20$core..ops..try..Try$GT$10from_error17hf67b51c0ba3cb86aE:
	.cfi_startproc
	pushq	%rbp
	.cfi_def_cfa_offset 16
	.cfi_offset %rbp, -16
	movq	%rsp, %rbp
	.cfi_def_cfa_register %rbp
	movq	%rdi, %rax
	movq	$0, 8(%rdi)
	popq	%rbp
	retq
	.cfi_endproc

	.p2align	4, 0x90
__ZN73_$LT$core..result..Result$LT$T$C$E$GT$$u20$as$u20$core..ops..try..Try$GT$11into_result17h02356ece29124a5bE:
	.cfi_startproc
	pushq	%rbp
	.cfi_def_cfa_offset 16
	.cfi_offset %rbp, -16
	movq	%rsp, %rbp
	.cfi_def_cfa_register %rbp
	movq	%rdi, %rax
	movq	(%rsi), %rcx
	movq	%rcx, (%rdi)
	movq	8(%rsi), %rcx
	movq	%rcx, 8(%rdi)
	movq	16(%rsi), %rcx
	movq	%rcx, 16(%rdi)
	popq	%rbp
	retq
	.cfi_endproc

	.p2align	4, 0x90
__ZN73_$LT$core..result..Result$LT$T$C$E$GT$$u20$as$u20$core..ops..try..Try$GT$11into_result17h0261165f9f169605E:
	.cfi_startproc
	pushq	%rbp
	.cfi_def_cfa_offset 16
	.cfi_offset %rbp, -16
	movq	%rsp, %rbp
	.cfi_def_cfa_register %rbp
	movq	%rdi, %rax
	movq	(%rsi), %rcx
	movq	%rcx, (%rdi)
	movq	8(%rsi), %rcx
	movq	%rcx, 8(%rdi)
	movq	16(%rsi), %rcx
	movq	%rcx, 16(%rdi)
	popq	%rbp
	retq
	.cfi_endproc

	.p2align	4, 0x90
__ZN73_$LT$core..result..Result$LT$T$C$E$GT$$u20$as$u20$core..ops..try..Try$GT$11into_result17h105efa4739467fb1E:
	.cfi_startproc
	pushq	%rbp
	.cfi_def_cfa_offset 16
	.cfi_offset %rbp, -16
	movq	%rsp, %rbp
	.cfi_def_cfa_register %rbp
	movq	%rdi, %rax
	movq	(%rsi), %rcx
	movq	%rcx, (%rdi)
	movq	8(%rsi), %rcx
	movq	%rcx, 8(%rdi)
	movq	16(%rsi), %rcx
	movq	%rcx, 16(%rdi)
	popq	%rbp
	retq
	.cfi_endproc

	.p2align	4, 0x90
__ZN73_$LT$core..result..Result$LT$T$C$E$GT$$u20$as$u20$core..ops..try..Try$GT$11into_result17h9173bafdad8be9bbE:
	.cfi_startproc
	pushq	%rbp
	.cfi_def_cfa_offset 16
	.cfi_offset %rbp, -16
	movq	%rsp, %rbp
	.cfi_def_cfa_register %rbp
	movq	%rdi, %rax
	movq	%rsi, %rdx
	popq	%rbp
	retq
	.cfi_endproc

	.p2align	4, 0x90
__ZN76_$LT$alloc..string..String$u20$as$u20$core..convert..From$LT$$RF$str$GT$$GT$4from17h54d2811f420988faE:
	.cfi_startproc
	pushq	%rbp
	.cfi_def_cfa_offset 16
	.cfi_offset %rbp, -16
	movq	%rsp, %rbp
	.cfi_def_cfa_register %rbp
	subq	$16, %rsp
	movq	%rdi, %rax
	movq	%rax, -8(%rbp)
	callq	__ZN5alloc3str56_$LT$impl$u20$alloc..borrow..ToOwned$u20$for$u20$str$GT$8to_owned17h8beba0bdad99f319E
	movq	-8(%rbp), %rax
	addq	$16, %rsp
	popq	%rbp
	retq
	.cfi_endproc

	.p2align	4, 0x90
__ZN77_$LT$alloc..raw_vec..RawVec$LT$T$C$A$GT$$u20$as$u20$core..ops..drop..Drop$GT$4drop17hc823d78de8a29af7E:
	.cfi_startproc
	pushq	%rbp
	.cfi_def_cfa_offset 16
	.cfi_offset %rbp, -16
	movq	%rsp, %rbp
	.cfi_def_cfa_register %rbp
	callq	__ZN5alloc7raw_vec19RawVec$LT$T$C$A$GT$14dealloc_buffer17h0e820e23632e62d9E
	popq	%rbp
	retq
	.cfi_endproc

	.p2align	4, 0x90
__ZN80_$LT$alloc..vec..Vec$LT$T$GT$$u20$as$u20$core..ops..index..IndexMut$LT$I$GT$$GT$9index_mut17h38792754a3b41ceeE:
Lfunc_begin10:
	.cfi_startproc
	.cfi_personality 155, _rust_eh_personality
	.cfi_lsda 16, Lexception10
	pushq	%rbp
	.cfi_def_cfa_offset 16
	.cfi_offset %rbp, -16
	movq	%rsp, %rbp
	.cfi_def_cfa_register %rbp
	subq	$64, %rsp
	movb	$0, -17(%rbp)
	movb	$1, -17(%rbp)
Ltmp52:
	callq	__ZN71_$LT$alloc..vec..Vec$LT$T$GT$$u20$as$u20$core..ops..deref..DerefMut$GT$9deref_mut17ha46a8e8a0c2d26e2E
Ltmp53:
	movq	%rdx, -32(%rbp)
	movq	%rax, -40(%rbp)
	jmp	LBB137_2
LBB137_1:
	movq	-16(%rbp), %rdi
	callq	__Unwind_Resume
	ud2
LBB137_2:
	movb	$0, -17(%rbp)
Ltmp54:
	movq	-40(%rbp), %rdi
	movq	-32(%rbp), %rsi
	callq	__ZN4core5slice77_$LT$impl$u20$core..ops..index..IndexMut$LT$I$GT$$u20$for$u20$$u5b$T$u5d$$GT$9index_mut17h61f90aae10e0964dE
Ltmp55:
	movq	%rdx, -48(%rbp)
	movq	%rax, -56(%rbp)
	jmp	LBB137_3
LBB137_3:
	movq	-56(%rbp), %rax
	movq	-48(%rbp), %rdx
	addq	$64, %rsp
	popq	%rbp
	retq
LBB137_4:
	movb	$0, -17(%rbp)
	jmp	LBB137_1
LBB137_5:
	testb	$1, -17(%rbp)
	jne	LBB137_4
	jmp	LBB137_1
LBB137_6:
Ltmp56:
	movq	%rax, -16(%rbp)
	movl	%edx, -8(%rbp)
	jmp	LBB137_5
Lfunc_end10:
	.cfi_endproc
	.section	__TEXT,__gcc_except_tab
	.p2align	2
GCC_except_table137:
Lexception10:
	.byte	255
	.byte	255
	.byte	1
	.uleb128 Lcst_end10-Lcst_begin10
Lcst_begin10:
	.uleb128 Ltmp52-Lfunc_begin10
	.uleb128 Ltmp53-Ltmp52
	.uleb128 Ltmp56-Lfunc_begin10
	.byte	0
	.uleb128 Ltmp53-Lfunc_begin10
	.uleb128 Ltmp54-Ltmp53
	.byte	0
	.byte	0
	.uleb128 Ltmp54-Lfunc_begin10
	.uleb128 Ltmp55-Ltmp54
	.uleb128 Ltmp56-Lfunc_begin10
	.byte	0
Lcst_end10:
	.p2align	2

	.section	__TEXT,__text,regular,pure_instructions
	.p2align	4, 0x90
__ZN90_$LT$core..ops..range..RangeFull$u20$as$u20$core..slice..SliceIndex$LT$$u5b$T$u5d$$GT$$GT$9index_mut17h6fa9bc9239b731d3E:
	.cfi_startproc
	pushq	%rbp
	.cfi_def_cfa_offset 16
	.cfi_offset %rbp, -16
	movq	%rsp, %rbp
	.cfi_def_cfa_register %rbp
	movq	%rdi, %rax
	movq	%rsi, %rdx
	popq	%rbp
	retq
	.cfi_endproc

	.p2align	4, 0x90
__ZN99_$LT$core..ops..range..Range$LT$usize$GT$$u20$as$u20$core..slice..SliceIndex$LT$$u5b$T$u5d$$GT$$GT$17get_unchecked_mut17h99f5bcd9d1321b4cE:
	.cfi_startproc
	pushq	%rbp
	.cfi_def_cfa_offset 16
	.cfi_offset %rbp, -16
	movq	%rsp, %rbp
	.cfi_def_cfa_register %rbp
	subq	$48, %rsp
	movq	%rdi, -8(%rbp)
	movq	%rdx, %rdi
	movq	%rsi, -16(%rbp)
	movq	%rcx, %rsi
	callq	__ZN4core5slice29_$LT$impl$u20$$u5b$T$u5d$$GT$10as_mut_ptr17h9b5a7e6d886de8c1E
	movq	%rax, -24(%rbp)
	movq	-24(%rbp), %rdi
	movq	-8(%rbp), %rsi
	callq	__ZN4core3ptr7mut_ptr31_$LT$impl$u20$$BP$mut$u20$T$GT$3add17h5205d6da8f4ee432E
	movq	%rax, -32(%rbp)
	movq	-16(%rbp), %rax
	movq	-8(%rbp), %rcx
	subq	%rcx, %rax
	movq	-32(%rbp), %rdi
	movq	%rax, %rsi
	callq	__ZN4core5slice18from_raw_parts_mut17h572b52d4ed8a9b76E
	movq	%rax, -40(%rbp)
	movq	%rdx, -48(%rbp)
	movq	-40(%rbp), %rax
	movq	-48(%rbp), %rdx
	addq	$48, %rsp
	popq	%rbp
	retq
	.cfi_endproc

	.p2align	4, 0x90
__ZN7dynamic3foo17hde2e4227b34a29d0E:
	.cfi_startproc
	pushq	%rbp
	.cfi_def_cfa_offset 16
	.cfi_offset %rbp, -16
	movq	%rsp, %rbp
	.cfi_def_cfa_register %rbp
	subq	$128, %rsp
	movq	%rdi, -88(%rbp)
	movq	%rsi, -80(%rbp)
	movq	l___unnamed_11(%rip), %rax
	leaq	-88(%rbp), %rcx
	movq	%rcx, -8(%rbp)
	movq	-8(%rbp), %rdi
	leaq	__ZN42_$LT$$RF$T$u20$as$u20$core..fmt..Debug$GT$3fmt17h229b4fe15ca62defE(%rip), %rsi
	movq	%rax, -96(%rbp)
	callq	__ZN4core3fmt10ArgumentV13new17h8d3cb201fc7b1f52E
	movq	%rax, -104(%rbp)
	movq	%rdx, -112(%rbp)
	movq	-104(%rbp), %rax
	movq	%rax, -24(%rbp)
	movq	-112(%rbp), %rcx
	movq	%rcx, -16(%rbp)
	leaq	-24(%rbp), %rdx
	leaq	-72(%rbp), %rdi
	movq	-96(%rbp), %rsi
	movl	$2, %r8d
	movq	%rdx, -120(%rbp)
	movq	%r8, %rdx
	movq	-120(%rbp), %rcx
	movl	$1, %r8d
	callq	__ZN4core3fmt9Arguments6new_v117h0b48b04e97b6ca25E
	leaq	-72(%rbp), %rdi
	callq	__ZN3std2io5stdio6_print17hd710f114df5ba8d7E
	addq	$128, %rsp
	popq	%rbp
	retq
	.cfi_endproc

	.p2align	4, 0x90
__ZN7dynamic4main17h35a2d98728a16632E:
Lfunc_begin11:
	.cfi_startproc
	.cfi_personality 155, _rust_eh_personality
	.cfi_lsda 16, Lexception11
	pushq	%rbp
	.cfi_def_cfa_offset 16
	.cfi_offset %rbp, -16
	movq	%rsp, %rbp
	.cfi_def_cfa_register %rbp
	subq	$64, %rsp
	leaq	l___unnamed_12(%rip), %rax
	movl	$5, -52(%rbp)
	leaq	-48(%rbp), %rdi
	movq	%rax, %rsi
	movl	$6, %edx
	callq	__ZN76_$LT$alloc..string..String$u20$as$u20$core..convert..From$LT$$RF$str$GT$$GT$4from17h54d2811f420988faE
	jmp	LBB141_2
LBB141_1:
	movq	-16(%rbp), %rdi
	callq	__Unwind_Resume
	ud2
LBB141_2:
	movabsq	$4617315517961601024, %rax
	movq	%rax, -24(%rbp)
Ltmp57:
	leaq	l___unnamed_13(%rip), %rsi
	leaq	-52(%rbp), %rdi
	callq	__ZN7dynamic3foo17hde2e4227b34a29d0E
Ltmp58:
	jmp	LBB141_3
LBB141_3:
Ltmp59:
	leaq	l___unnamed_14(%rip), %rsi
	leaq	-48(%rbp), %rdi
	callq	__ZN7dynamic3foo17hde2e4227b34a29d0E
Ltmp60:
	jmp	LBB141_5
LBB141_4:
	leaq	-48(%rbp), %rdi
	callq	__ZN4core3ptr13drop_in_place17hc64a49d5a152f264E
	jmp	LBB141_1
LBB141_5:
Ltmp61:
	leaq	l___unnamed_15(%rip), %rsi
	leaq	-24(%rbp), %rdi
	callq	__ZN7dynamic3foo17hde2e4227b34a29d0E
Ltmp62:
	jmp	LBB141_6
LBB141_6:
	leaq	-48(%rbp), %rdi
	callq	__ZN4core3ptr13drop_in_place17hc64a49d5a152f264E
	addq	$64, %rsp
	popq	%rbp
	retq
LBB141_8:
Ltmp63:
	movq	%rax, -16(%rbp)
	movl	%edx, -8(%rbp)
	jmp	LBB141_4
Lfunc_end11:
	.cfi_endproc
	.section	__TEXT,__gcc_except_tab
	.p2align	2
GCC_except_table141:
Lexception11:
	.byte	255
	.byte	255
	.byte	1
	.uleb128 Lcst_end11-Lcst_begin11
Lcst_begin11:
	.uleb128 Lfunc_begin11-Lfunc_begin11
	.uleb128 Ltmp57-Lfunc_begin11
	.byte	0
	.byte	0
	.uleb128 Ltmp57-Lfunc_begin11
	.uleb128 Ltmp60-Ltmp57
	.uleb128 Ltmp63-Lfunc_begin11
	.byte	0
	.uleb128 Ltmp60-Lfunc_begin11
	.uleb128 Ltmp61-Ltmp60
	.byte	0
	.byte	0
	.uleb128 Ltmp61-Lfunc_begin11
	.uleb128 Ltmp62-Ltmp61
	.uleb128 Ltmp63-Lfunc_begin11
	.byte	0
	.uleb128 Ltmp62-Lfunc_begin11
	.uleb128 Lfunc_end11-Ltmp62
	.byte	0
	.byte	0
Lcst_end11:
	.p2align	2

	.section	__TEXT,__text,regular,pure_instructions
	.globl	_main
	.p2align	4, 0x90
_main:
	.cfi_startproc
	pushq	%rbp
	.cfi_def_cfa_offset 16
	.cfi_offset %rbp, -16
	movq	%rsp, %rbp
	.cfi_def_cfa_register %rbp
	subq	$16, %rsp
	movslq	%edi, %rax
	leaq	__ZN7dynamic4main17h35a2d98728a16632E(%rip), %rdi
	movq	%rsi, -8(%rbp)
	movq	%rax, %rsi
	movq	-8(%rbp), %rdx
	callq	__ZN3std2rt10lang_start17hc912caaa477b3a92E
	addq	$16, %rsp
	popq	%rbp
	retq
	.cfi_endproc

	.section	__DATA,__const
	.p2align	3
l___unnamed_1:
	.quad	__ZN4core3ptr13drop_in_place17h0e83479d9c4c5b63E
	.quad	8
	.quad	8
	.quad	__ZN3std2rt10lang_start28_$u7b$$u7b$closure$u7d$$u7d$17he8938e6745e3b6c7E
	.quad	__ZN3std2rt10lang_start28_$u7b$$u7b$closure$u7d$$u7d$17he8938e6745e3b6c7E
	.quad	__ZN4core3ops8function6FnOnce40call_once$u7b$$u7b$vtable.shim$u7d$$u7d$17h2cd2b2a3f27076a5E

	.section	__TEXT,__const
l___unnamed_16:
	.ascii	"assertion failed: `(left == right)`\n  left: `"

l___unnamed_17:
	.ascii	"`,\n right: `"

l___unnamed_18:
	.ascii	"`: "

	.section	__DATA,__const
	.p2align	3
l___unnamed_19:
	.quad	l___unnamed_16
	.asciz	"-\000\000\000\000\000\000"
	.quad	l___unnamed_17
	.asciz	"\f\000\000\000\000\000\000"
	.quad	l___unnamed_18
	.asciz	"\003\000\000\000\000\000\000"

	.p2align	3
l___unnamed_2:
	.quad	l___unnamed_19

	.section	__TEXT,__const
l___unnamed_20:
	.ascii	"destination and source slices have different lengths"

	.section	__DATA,__const
	.p2align	3
l___unnamed_21:
	.quad	l___unnamed_20
	.asciz	"4\000\000\000\000\000\000"

	.p2align	3
l___unnamed_3:
	.quad	l___unnamed_21

	.section	__TEXT,__const
	.p2align	3
l___unnamed_22:
	.byte	0

	.section	__DATA,__const
	.p2align	3
l___unnamed_4:
	.quad	l___unnamed_22

	.section	__TEXT,__const
l___unnamed_23:
	.ascii	"/rustc/b8cedc00407a4c56a3bda1ed605c6fc166655447/src/libcore/macros/mod.rs"

	.section	__DATA,__const
	.p2align	3
l___unnamed_5:
	.quad	l___unnamed_23
	.asciz	"I\000\000\000\000\000\000\000\022\000\000\000\r\000\000"

	.section	__TEXT,__const
l___unnamed_6:
	.ascii	"called `Result::unwrap()` on an `Err` value"

	.section	__DATA,__const
	.p2align	3
l___unnamed_7:
	.quad	__ZN4core3ptr13drop_in_place17h114df5bd5598a58fE
	.quad	0
	.quad	1
	.quad	__ZN59_$LT$core..alloc..LayoutErr$u20$as$u20$core..fmt..Debug$GT$3fmt17h756726cdcf51fd5aE

	.section	__TEXT,__const
l___unnamed_24:
	.ascii	"/rustc/b8cedc00407a4c56a3bda1ed605c6fc166655447/src/liballoc/raw_vec.rs"

	.section	__DATA,__const
	.p2align	3
l___unnamed_8:
	.quad	l___unnamed_24
	.asciz	"G\000\000\000\000\000\000\000W\000\000\000\036\000\000"

	.section	__TEXT,__const
l___unnamed_9:
	.ascii	"internal error: entered unreachable code"

l___unnamed_25:
	.ascii	"<::core::macros::panic macros>"

	.section	__DATA,__const
	.p2align	3
l___unnamed_10:
	.quad	l___unnamed_25
	.asciz	"\036\000\000\000\000\000\000\000\002\000\000\000\002\000\000"

	.section	__TEXT,__const
l___unnamed_26:
	.byte	10

	.section	__DATA,__const
	.p2align	3
l___unnamed_27:
	.quad	l___unnamed_22
	.space	8
	.quad	l___unnamed_26
	.asciz	"\001\000\000\000\000\000\000"

	.p2align	3
l___unnamed_11:
	.quad	l___unnamed_27

	.section	__TEXT,__const
l___unnamed_12:
	.ascii	"Hello!"

	.section	__DATA,__const
	.p2align	3
l___unnamed_13:
	.quad	__ZN4core3ptr13drop_in_place17hba046b70022b5d8eE
	.quad	4
	.quad	4
	.quad	__ZN4core3fmt3num50_$LT$impl$u20$core..fmt..Debug$u20$for$u20$i32$GT$3fmt17h5d89f35dbd4503a6E

	.p2align	3
l___unnamed_14:
	.quad	__ZN4core3ptr13drop_in_place17hc64a49d5a152f264E
	.quad	24
	.quad	8
	.quad	__ZN58_$LT$alloc..string..String$u20$as$u20$core..fmt..Debug$GT$3fmt17hea8eda3bfefd5e1dE

	.p2align	3
l___unnamed_15:
	.quad	__ZN4core3ptr13drop_in_place17h4b1c46fd3ce317f9E
	.quad	8
	.quad	8
	.quad	__ZN4core3fmt5float50_$LT$impl$u20$core..fmt..Debug$u20$for$u20$f64$GT$3fmt17h6cd00929e66640eaE


.subsections_via_symbols
